{"main_library":{"exported_symbols":[{"data":{"global":["__ZTSN2cv5aruco13ArucoDetectorE","__ZTVN2cv16TLSDataContainerE","__ZTIN2cv8parallel14ParallelForAPIE","__ZTSN2cv6detail18GraphCutSeamFinder4ImplE","__ZTCN2cv5AKAZEE0_NS_9Feature2DE","__ZTSN2cv6detail15SphericalWarperE","__ZTIN2cv6detail20BundleAdjusterReprojE","__ZTIN2cv17DescriptorMatcherE","__ZTIN2cv5MatOpE","__ZTSN2cv11FileStorageE","__ZTIN2cv6detail26BestOf2NearestRangeMatcherE","__ZTVN2cv6detail8tracking23TrackerSamplerAlgorithmE","__ZTVN2cv6detail18PairwiseSeamFinderE","__ZTVN2cv5flann5IndexE","__ZTVN2cv3ocl7Context11UserContextE","__ZTSN2cv12GFTTDetectorE","__ZTIN2cv4KAZEE","__ZTIN2cv5BRISKE","__ZTCN2cv12GFTTDetectorE0_NS_9Feature2DE","__ZTSN2cv9BFMatcherE","__ZTSN2cv16ParallelLoopBodyE","__ZTIN2cv6detail8tracking14TrackerFeatureE","__ZTIN2cv13IStreamReaderE","__ZTSN2cv3dnn14dnn4_v202506195LayerE","__ZTTN2cv5BRISKE","__ZTVN2cv10TrackerMILE","__ZTIN2cv2ml9StatModelE","__ZTIN2cv6detail8tracking32TrackerStateEstimatorMILBoostingE","__ZTIN2cv6detail17BundleAdjusterRayE","__ZTTN2cv7quality10QualityMSEE","__ZTSN2cv5BRISKE","__ZTIN2cv6detail17VoronoiSeamFinderE","__ZTSN2cv6detail26BestOf2NearestRangeMatcherE","__ZTSN2cv16TLSDataContainerE","__ZTIN2cv17DescriptorMatcher20DescriptorCollectionE","__ZTSN2cv9ExceptionE","__ZTVN2cv6detail25BlocksChannelsCompensatorE","__ZTIN2cv6detail17CylindricalWarperE","__ZTVN2cv21BaseCascadeClassifierE","__ZTVN2cv5aruco13ArucoDetectorE","__ZTSN2cv5AKAZEE","__ZTIN2cv11dnn_backend14NetworkBackendE","__ZTSN2cv6detail8tracking32TrackerStateEstimatorMILBoostingE","__ZTIN2cv19FastFeatureDetectorE","__ZTSN2cv7quality11QualityGMSDE","__ZTCN2cv4MSERE0_NS_9Feature2DE","__ZTSN2cv19FastFeatureDetectorE","__ZTSN2cv6detail12AffineWarperE","__ZN2cv13__terminationE","__ZTCN2cv20AgastFeatureDetectorE0_NS_9Feature2DE","__ZTVN2cv6detail17BundleAdjusterRayE","__ZTVN2cv6detail18GraphCutSeamFinderE","__ZTVN2cv9Feature2DE","__ZTVN2cv6detail11PlaneWarperE","__ZTVN2cv22SimpleBlobDetectorImplE","__ZTTN2cv4MSERE","__ZTVN2cv7quality11QualityGMSDE","__ZTSN2cv11VideoWriterE","__ZTVN2cv6detail14FeatherBlenderE","__ZTSN2cv7TrackerE","__ZTSN2cv6detail7BlenderE","__ZTVN2cv6detail19ChannelsCompensatorE","__ZTVN2cv4SIFTE","__ZTVN2cv6detail17BlocksCompensatorE","__ZTVN2cv2ml9StatModelE","__ZTIN2cv6detail21BlocksGainCompensatorE","__ZTSN2cv17DescriptorMatcherE","__ZTVN2cv17FlannBasedMatcherE","__ZTVN2cv5aruco5Board4ImplE","__ZTSN2cv6detail17CylindricalWarperE","__ZTSN2cv6detail8tracking23TrackerSamplerAlgorithmE","__ZTSN2cv12VideoCaptureE","__ZTIN2cv6detail23SphericalPortraitWarperE","__ZTTN2cv18SimpleBlobDetectorE","__ZTSN2cv21BaseCascadeClassifierE","__ZTTN2cv9Feature2DE","_VP8GetCPUInfo","__ZTIN2cv6detail27AffineBestOf2NearestMatcherE","__ZTSN2cv6detail16MultiBandBlenderE","__ZTSN2cv6detail19ChannelsCompensatorE","__ZTVN2cv9FormatterE","__ZTVN2cv6detail17VoronoiSeamFinderE","__ZTIN2cv7quality11QualitySSIME","__ZTVN2cv6detail7BlenderE","__ZTIN2cv9FormatterE","__ZTSN2cv6detail11PlaneWarperE","__ZTIN2cv6detail19ChannelsCompensatorE","__ZTIN2cv22SimpleBlobDetectorImplE","__ZTIN2cv18SimpleBlobDetectorE","__ZTIN2cv3dnn14dnn4_v202506193Net4ImplE","__ZTIN2cv20AgastFeatureDetectorE","__ZTVN2cv13HOGDescriptorE","__ZTIN2cv9ExceptionE","__ZTVN2cv4KAZEE","__ZTVN2cv7quality11QualitySSIME","__ZTVN2cv6detail15FeaturesMatcherE","__ZTSN2cv11dnn_backend14NetworkBackendE","__ZTSN2cv5aruco5Board4ImplE","__ZTVN2cv17DescriptorMatcher20DescriptorCollectionE","__ZTIN2cv6detail12DpSeamFinderE","__ZTIN2cv6detail11PlaneWarperE","__ZTSN2cv6detail20AffineBasedEstimatorE","__ZTVN2cv9FormattedE","__ZTVN2cv6detail21BlocksGainCompensatorE","__ZTSN2cv6detail17VoronoiSeamFinderE","__ZTVN2cv5BRISKE","__ZTIN2cv12GFTTDetectorE","__ZTIN2cv6detail15SphericalWarperE","__ZTIN2cv5flann5IndexE","__ZTSN2cv10TrackerMILE","_logCallback","__ZTIN2cv6detail8tracking17TrackerSamplerCSCE","__ZTSN2cv18SimpleBlobDetectorE","__ZTIN2cv6detail8tracking23TrackerSamplerAlgorithmE","__ZTSN2cv6detail25BlocksChannelsCompensatorE","__ZTSN2cv9AlgorithmE","__ZTIN2cv6detail18GraphCutSeamFinder4ImplE","__ZTIN2cv4SIFTE","_logCallbackEx","__ZTTN2cv7quality14QualityBRISQUEE","__ZTVN2cv13IStreamReaderE","__ZTVN2cv4MSERE","__ZTIN2cv7TrackerE","__ZTSN2cv12MatAllocatorE","__ZTCN2cv19FastFeatureDetectorE0_NS_9Feature2DE","__ZTVN2cv6detail23SphericalPortraitWarperE","__ZTIN2cv5aruco5Board4ImplE","__ZTSN2cv3dnn14dnn4_v202506193Net4ImplE","__ZTSN2cv4MSERE","__ZTVN2cv3dnn14dnn4_v202506199LSTMLayerE","__ZTVN2cv3dnn14dnn4_v202506193Net4ImplE","__ZTVN2cv8parallel14ParallelForAPIE","__ZTVN2cv2ml9TrainDataE","__ZTVN2cv6detail18GraphCutSeamFinder4ImplE","__ZTVN2cv6detail20BundleAdjusterReprojE","__ZTSN2cv8img_hash11ImgHashBaseE","__ZTCN2cv22SimpleBlobDetectorImplE0_NS_18SimpleBlobDetectorE","__ZTIN2cv6detail8tracking12TrackerModelE","__ZTIN2cv6detail20AffineBasedEstimatorE","__ZTCN2cv22SimpleBlobDetectorImplE0_NS_9Feature2DE","__ZTIN2cv13HOGDescriptorE","__ZTVN2cv9ExceptionE","__ZTSN2cv22SimpleBlobDetectorImplE","__ZTVN2cv12MatAllocatorE","__ZTVN2cv6detail8tracking17TrackerSamplerCSCE","__ZTVN2cv19FastFeatureDetectorE","__ZTIN2cv21BaseCascadeClassifierE","__ZTIN2cv9AlgorithmE","__ZTIN2cv6detail16MultiBandBlenderE","__ZTTN2cv12GFTTDetectorE","__ZTVN2cv11VideoWriterE","__ZTVN2cv6detail15GainCompensatorE","__ZTCN2cv5BRISKE0_NS_9Feature2DE","__ZTIN2cv3ORBE","__ZTIN2cv7quality10QualityMSEE","__ZTTN2cv4KAZEE","__ZTTN2cv7quality11QualityGMSDE","__ZTIN2cv6detail18GraphCutSeamFinderE","__ZTSN2cv6detail18GraphCutSeamFinderE","__ZTSN2cv6detail21BlocksGainCompensatorE","__ZTIN2cv7quality11QualityGMSDE","__ZTCN2cv7quality10QualityMSEE0_NS0_11QualityBaseE","__ZTIN2cv6detail17BlocksCompensatorE","__ZTVN2cv7quality14QualityBRISQUEE","__ZTIN2cv6detail18PairwiseSeamFinderE","__ZTIN2cv6detail24HomographyBasedEstimatorE","__ZTIN2cv6detail21BestOf2NearestMatcherE","__ZTTN2cv22SimpleBlobDetectorImplE","__ZTIN2cv10TrackerMILE","__ZTVN2cv11dnn_backend14NetworkBackendE","__ZTVN2cv11FileStorageE","__ZTVN2cv6detail17CylindricalWarperE","__ZTSN2cv13IStreamReaderE","__ZTVN2cv16ParallelLoopBodyE","__ZTSN2cv6detail20BundleAdjusterAffineE","__ZTVN2cv3dnn14dnn4_v202506195LayerE","__ZTIN2cv12VideoCaptureE","__ZTIN2cv6detail12AffineWarperE","__ZTVN2cv6detail27AffineBestOf2NearestMatcherE","__ZTVN2cv6detail16MultiBandBlenderE","__ZTIN2cv6detail14FeatherBlenderE","__ZTSN2cv5flann5IndexE","__ZTVN2cv6detail21BestOf2NearestMatcherE","__ZTSN2cv3ORBE","__ZTCN2cv4SIFTE0_NS_9Feature2DE","__ZTVN2cv6detail26BestOf2NearestRangeMatcherE","__ZTIN2cv6detail8tracking21TrackerStateEstimatorE","__ZTVN2cv6detail27BundleAdjusterAffinePartialE","__ZTSN2cv8parallel14ParallelForAPIE","__ZTIN2cv6detail15FeaturesMatcherE","__ZTSN2cv6detail23SphericalPortraitWarperE","__ZTIN2cv16ParallelLoopBodyE","__ZTSN2cv3dnn14dnn4_v202506199LSTMLayerE","__ZTVN2cv6detail8tracking32TrackerStateEstimatorMILBoostingE","__ZTTN2cv5AKAZEE","__ZTIN2cv3dnn14dnn4_v202506195LayerE","__ZTCN2cv7quality11QualitySSIME0_NS0_11QualityBaseE","__ZTSN2cv5MatOpE","__ZTIN2cv5AKAZEE","__ZTTN2cv7quality11QualitySSIME","__ZTSN2cv6detail8tracking12TrackerModelE","__ZTVN2cv5AKAZEE","__ZTVN2cv6detail12DpSeamFinderE","_DartCvMacOSVersionNumber","__ZTIN2cv6detail25BlocksChannelsCompensatorE","__ZTSN2cv11FileStorage4ImplE","__ZTIN2cv8img_hash11ImgHashBaseE","__ZTSN2cv7quality10QualityMSEE","__ZTIN2cv3dnn14dnn4_v202506199LSTMLayerE","__ZTVN2cv6detail8tracking14TrackerFeatureE","__ZTVN2cv18SimpleBlobDetectorE","__ZTIN2cv2ml9TrainDataE","__ZTVN2cv6detail12AffineWarperE","__ZTSN2cv6detail17BlocksCompensatorE","__ZTSN2cv6detail12DpSeamFinderE","__ZTSN2cv9FormatterE","__ZTSN2cv13HOGDescriptorE","__ZTIN2cv11VideoWriterE","__ZTIN2cv6detail7BlenderE","__ZTVN2cv3ORBE","__ZTSN2cv9FormattedE","__ZTVN2cv12VideoCaptureE","__ZTIN2cv9BFMatcherE","__ZTSN2cv9Feature2DE","__ZTSN2cv6detail8tracking14TrackerFeatureE","__ZTSN2cv17FlannBasedMatcherE","__ZTSN2cv6detail17BundleAdjusterRayE","__ZTSN2cv2ml9TrainDataE","__ZTSN2cv6detail8tracking17TrackerSamplerCSCE","__ZTVN2cv6detail8tracking12TrackerModelE","__ZTVN2cv6detail20AffineBasedEstimatorE","__ZTIN2cv11FileStorage4ImplE","__ZTVN2cv20AgastFeatureDetectorE","__ZTIN2cv12MatAllocatorE","__ZTCN2cv3ORBE0_NS_9Feature2DE","__ZTTN2cv20AgastFeatureDetectorE","__ZTSN2cv4SIFTE","__ZTIN2cv16TLSDataContainerE","__ZTIN2cv9Feature2DE","__ZTVN2cv12GFTTDetectorE","__ZTSN2cv17DescriptorMatcher20DescriptorCollectionE","__ZTSN2cv6detail14FeatherBlenderE","__ZTTN2cv3ORBE","__ZTVN2cv9BFMatcherE","__ZTVN2cv7TrackerE","__ZTVN2cv6detail24HomographyBasedEstimatorE","__ZTSN2cv6detail15GainCompensatorE","__ZTSN2cv6detail24HomographyBasedEstimatorE","__ZTSN2cv6detail27AffineBestOf2NearestMatcherE","__ZTCN2cv7quality14QualityBRISQUEE0_NS0_11QualityBaseE","__ZTIN2cv6detail27BundleAdjusterAffinePartialE","__ZTVN2cv17DescriptorMatcherE","_DartCvMacOSVersionString","__ZTIN2cv6detail18BundleAdjusterBaseE","__ZTSN2cv6detail15FeaturesMatcherE","__ZTCN2cv7quality11QualityGMSDE0_NS0_11QualityBaseE","__ZTVN2cv8img_hash11ImgHashBaseE","__ZTIN2cv6detail15GainCompensatorE","__ZTVN2cv11FileStorage4ImplE","__ZTIN2cv3ocl7Context11UserContextE","__ZTCN2cv4KAZEE0_NS_9Feature2DE","__ZTVN2cv6detail20BundleAdjusterAffineE","__ZTSN2cv6detail18PairwiseSeamFinderE","__ZTSN2cv7quality14QualityBRISQUEE","__ZTIN2cv9FormattedE","__ZTSN2cv7quality11QualitySSIME","__ZTIN2cv17FlannBasedMatcherE","__ZTSN2cv20AgastFeatureDetectorE","__ZTCN2cv18SimpleBlobDetectorE0_NS_9Feature2DE","__ZTIN2cv11FileStorageE","__ZTSN2cv6detail21BestOf2NearestMatcherE","__ZTIN2cv4MSERE","__ZTSN2cv2ml9StatModelE","__ZTVN2cv9AlgorithmE","__ZTSN2cv6detail20BundleAdjusterReprojE","__ZTVN2cv6detail8tracking21TrackerStateEstimatorE","__ZTSN2cv6detail27BundleAdjusterAffinePartialE","__ZTVN2cv6detail18BundleAdjusterBaseE","__ZTIN2cv6detail20BundleAdjusterAffineE","__ZTVN2cv5MatOpE","__ZTSN2cv3ocl7Context11UserContextE","__ZTIN2cv5aruco13ArucoDetectorE","__ZTSN2cv6detail18BundleAdjusterBaseE","__ZTVN2cv7quality10QualityMSEE","__ZTTN2cv19FastFeatureDetectorE","__ZTTN2cv4SIFTE","__ZTSN2cv4KAZEE","__ZTVN2cv6detail15SphericalWarperE","__ZTSN2cv6detail8tracking21TrackerStateEstimatorE","__ZTIN2cv7quality14QualityBRISQUEE"],"objc_class":["PodsDummy_DartCvMacOS"]},"text":{"global":["__ZN2cv3hal19cvtTwoPlaneYUVtoBGREPKhmS2_mPhmiiibiNS_13AlgorithmHintE","__ZN2cv11FileStorage5writeERKNSt3__112basic_stringIcNS1_11char_traitsIcEENS1_9allocatorIcEEEERKNS_3MatE","_cvAdaptiveThreshold","_cv_dnn_getAvailableTargets","__ZN2cv11FileStorage5writeERKNSt3__112basic_stringIcNS1_11char_traitsIcEENS1_9allocatorIcEEEEx","_cv_ximgproc_EdgeBoxes_setEdgeMergeThr","_cv_fitLine2f","_cvThreshHist","__ZN2cv3dnn14dnn4_v2025061917releaseHDDLPluginEv","_cv_phaseCorrelate","_cvLinearPolar","__ZN2cv5flann5Index12radiusSearchERKNS_11_InputArrayERKNS_12_OutputArrayES7_diRKNS0_12SearchParamsE","__ZN2cv8img_hash11AverageHash6createEv","__ZN2cv3hal15warpPerspectiveEiPKhmiiPhmiiPKdiiS5_","__ZN2cv8internal15IntrinsicParamsC2ENS_3VecIdLi2EEES3_NS2_IdLi4EEEd","_std_VecVecDMatch_clear","_cv_ximgproc_StructuredEdgeDetection_detectEdges","__ZN2cv6detail19ExposureCompensator4feedERKNSt3__16vectorINS_6Point_IiEENS2_9allocatorIS5_EEEERKNS3_INS_4UMatENS6_ISB_EEEESF_","__ZN2cv6dilateERKNS_11_InputArrayERKNS_12_OutputArrayES2_NS_6Point_IiEEiiRKNS_7Scalar_IdEE","__ZN2cv9Feature2DD0Ev","__ZN2cv15groupRectanglesERNSt3__16vectorINS_5Rect_IiEENS0_9allocatorIS3_EEEERNS1_IiNS4_IiEEEERNS1_IdNS4_IdEEEEid","_std_VecRect2f_get_p","__ZN2cv12VideoCaptureD0Ev","__ZN2cv3ocl8PlatformD1Ev","_std_VecVec4f_set","__ZN2cvdvERKNS_7MatExprEd","_cv_Mat_get_i8_1","_cvSeqInsertSlice","_cv_VideoCapture_grab","_cv_Mat_set_Vec3f","_std_VecVecPoint3i_resize","_std_VecF64_get","_std_VecDMatch_extend","__ZNK2cv11_InputArray15getGpuMatVectorERNSt3__16vectorINS_4cuda6GpuMatENS1_9allocatorIS4_EEEE","__ZN2cv25stereoRectifyUncalibratedERKNS_11_InputArrayES2_S2_NS_5Size_IiEERKNS_12_OutputArrayES7_d","__ZN2cv29createBackgroundSubtractorKNNEidb","__ZN2cvplERKNS_7Scalar_IdEERKNS_3MatE","__ZN2cv3ocl7ProgramC2Ev","__ZNK2cv3Mat4diagEi","__ZN2cv4UMatC2EiiiRKNS_7Scalar_IdEENS_14UMatUsageFlagsE","__ZN2cv3MatC1ERKS0_RKNSt3__16vectorINS_5RangeENS3_9allocatorIS5_EEEE","__ZN2cv6detail12AffineWarper7warpRoiENS_5Size_IiEERKNS_11_InputArrayES6_","_cv_ORB_setWTA_K","_cv_AKAZE_close","__ZN2cv15ImageCollection4Impl5resetEv","__ZN2cv11FileStorage5writeERKNSt3__112basic_stringIcNS1_11char_traitsIcEENS1_9allocatorIcEEEEi","__ZN2cv3hal5not8uEPKhmS2_mPhmiiPv","__ZN2cv3hal11cvtXYZtoBGREPKhmPhmiiiib","_cvContourArea","__ZNK2cv21GraphicalCodeDetector11decodeMultiERKNS_11_InputArrayES3_RNSt3__16vectorINS4_12basic_stringIcNS4_11char_traitsIcEENS4_9allocatorIcEEEENS9_ISB_EEEERKNS_12_OutputArrayE","__ZN2cv13batchDistanceERKNS_11_InputArrayES2_RKNS_12_OutputArrayEiS5_iiS2_ib","_cv_Mat_get_Vec2i","__ZN2cv3ocl7Image2DC1Ev","__ZNK2cv3dnn14dnn4_v202506193Net16getOutputDetailsERNSt3__16vectorIfNS3_9allocatorIfEEEERNS4_IiNS5_IiEEEE","_cv_aruco_detectorParameters_get_errorCorrectionRate","__ZN2cv3sumERKNS_11_InputArrayE","__ZN2cv18getVersionRevisionEv","__ZN2cv6detail8tracking14TrackerSampler12clearSamplesEv","__ZN2cv15KeyPointsFilter10retainBestERNSt3__16vectorINS_8KeyPointENS1_9allocatorIS3_EEEEi","__ZN2cv9SparseMat3HdrC2EiPKii","__ZN2cv6detail8tracking17TrackerFeatureSet10extractionERKNSt3__16vectorINS_3MatENS3_9allocatorIS5_EEEE","__Z7cvFloorRKN2cv10softdoubleE","__ZN2cv6detail18GraphCutSeamFinderC1ENSt3__112basic_stringIcNS2_11char_traitsIcEENS2_9allocatorIcEEEEff","_cv_getNumThreads","_cv_Mat_ptr_uchar_1","__ZN2cv18getCPUFeaturesLineEv","__ZN2cv11writeScalarERNS_11FileStorageEf","_cv_FaceDetectorYN_getNMSThreshold","__ZN2cv5instr8NodeDataD2Ev","__ZN2cv3dnn14dnn4_v202506198ELULayer6createERKNS1_11LayerParamsE","__ZN2cv3ocl13ProgramSource10fromBinaryERKNSt3__112basic_stringIcNS2_11char_traitsIcEENS2_9allocatorIcEEEESA_PKhmSA_","__ZNK2cv4UMat3invEi","_cv_Mat_rows","_cv_minMaxIdx","__ZTv0_n24_N2cv9Feature2DD0Ev","_std_VecI32_clone","_cv_Mat_set_f32_1","__ZN2cv14FaceDetectorYN6createERKNSt3__112basic_stringIcNS1_11char_traitsIcEENS1_9allocatorIcEEEERKNS1_6vectorIhNS5_IhEEEESE_RKNS_5Size_IiEEffiii","_cv_aruco_detectorParameters_set_detectInvertedMarker","__ZN2cv6detail8tracking14TrackerSamplerC1Ev","_cv_VideoCapture_open_1","_cv_RotatedRect_boundingRect2f","__ZN2cv10drawMarkerERKNS_17_InputOutputArrayENS_6Point_IiEERKNS_7Scalar_IdEEiiii","__ZN2cv11FileStorage4Impl13Base64DecoderC2Ev","__ZN2cv3ocl6KernelC2EOS1_","_cv_ximgproc_EdgeBoxes_getGamma","_std_VecVec4f_new_1","__ZN2cv15calcCovarMatrixERKNS_11_InputArrayERKNS_12_OutputArrayERKNS_17_InputOutputArrayEii","__ZN2cv3hal14polarToCart32fEPKfS2_PfS3_ib","__ZN2cv5aruco9GridBoardC2Ev","_cv_aruco_detectorParameters_set_aprilTagQuadDecimate","_std_VecVecPoint2f_set","_std_VecChar_new_1","_std_VecPoint_extend","__ZN2cv19connectedComponentsERKNS_11_InputArrayERKNS_12_OutputArrayEii","__ZN2cv17DescriptorMatcher5matchERKNS_11_InputArrayERNSt3__16vectorINS_6DMatchENS4_9allocatorIS6_EEEES3_","__ZN2cv4UMatC2EiiiNS_14UMatUsageFlagsE","__ZNK2cv5MatOp4diagERKNS_7MatExprEiRS1_","_WebPAnimEncoderSetChunk","__ZNK2cv8KeyPoint4hashEv","_cv_matchShapes","__ZN2cv5flann17LinearIndexParamsC1Ev","_cv_StereoBM_compute","_cv_solvePoly","_WebPDecodeARGBInto","__ZN2cv3hal7recip8sEPKamS2_mPamiiPv","__ZN2cv10softdoubleC2Ei","_cv_BRISK_create_1","_std_VecVec6f_length","__ZN2cv3hal11normHammingEPKhS2_ii","__ZN2cv11FileStorage4Impl17resizeWriteBufferEPci","__ZN2cv3MatC2Ev","__ZN2cv3ocl5QueueC1ERKS1_","_cv_line","__ZNK2cv12MatAllocator23getBufferPoolControllerEPKc","__ZN2cv3ocl7Image2DC2ERKS1_","_cv_GFTTDetector_getHarrisDetector","_cv_MSER_setMinArea","_cv_TrackerMIL_create","__ZN2cv6detail8tracking18TrackerTargetState15setTargetHeightEi","_cv_MSER_detect","_std_VecVec4i_shrink_to_fit","_std_VecF64_length","_cv_ximgproc_GraphSegmentation_create","_cv_inRange_1","__ZN2cv18SimpleBlobDetector6ParamsC1Ev","__ZN2cv5errorERKNS_9ExceptionE","__ZN2cv11VideoWriterC1ERKNSt3__112basic_stringIcNS1_11char_traitsIcEENS1_9allocatorIcEEEEiidRKNS_5Size_IiEERKNS1_6vectorIiNS5_IiEEEE","__ZN2cv9polylinesERKNS_17_InputOutputArrayEPKPKNS_6Point_IiEEPKiibRKNS_7Scalar_IdEEiii","__ZNK2cv3ocl6Device21nativeVectorWidthHalfEv","__ZN2cv8internal18WriteStructContextC2ERNS_11FileStorageERKNSt3__112basic_stringIcNS4_11char_traitsIcEENS4_9allocatorIcEEEEiSC_","__ZNK2cv12_OutputArray9fixedSizeEv","_cv_ximgproc_EdgeBoxes_getMinScore","__ZNK2cv9Feature2D14descriptorSizeEv","_cv_BFMatcher_match","__ZN2cv3hal5sub8uEPKhmS2_mPhmiiPv","_cv_wechat_qrcode_WeChatQRCode_create","_cv_Mat_set_Vec2f","__ZN2cv3dnn14dnn4_v202506193Net4Impl20setPreferableBackendERS2_i","_cv_Mat_get_Vec6d","_cv_StereoBM_getDisp12MaxDiff","_cv_ximgproc_EdgeBoxes_getEdgeMinMag","__ZN2cv3dnn14dnn4_v2025061925readNetFromModelOptimizerERKNSt3__16vectorIhNS2_9allocatorIhEEEES8_","_cv_SIFT_setSigma","__ZN2cv3dnn14dnn4_v202506193Net4Impl8setUpNetERKNSt3__16vectorINS1_6detail8LayerPinENS4_9allocatorIS7_EEEE","_cv_StereoBM_getROI1","__ZN2cv6detail5Graph7addEdgeEiif","_cv_StereoBM_setSpeckleRange","__ZNK2cv3dnn14dnn4_v202506193Net4Impl5emptyEv","__ZN2cv3hal5mul8uEPKhmS2_mPhmiiPv","__ZN2cv3ocl7ContextC1EOS1_","_cv_AKAZE_setNOctaveLayers","__ZN2cv17DescriptorMatcher11isMaskedOutERKNS_11_InputArrayEi","_cv_ximgproc_EdgeBoxes_getMaxAspectRatio","_cvSet1D","__ZNK2cv3ocl6Device16image3DMaxHeightEv","_std_VecF16_length","_cv_KAZE_getNOctaves","__ZN2cv3dnn14dnn4_v2025061918readNetFromDarknetERKNSt3__112basic_stringIcNS2_11char_traitsIcEENS2_9allocatorIcEEEESA_","__ZN2cv8ximgproc16niBlackThresholdERKNS_11_InputArrayERKNS_12_OutputArrayEdiidid","__ZN2cv6detail11PlaneWarper4warpERKNS_11_InputArrayES4_S4_iiRKNS_12_OutputArrayE","__ZNK2cv3dnn14dnn4_v202506193Net13getLayerNamesEv","__ZN2cv5instr8NodeDataC1ERS1_","_cv_Mat_op_mul_u8","__ZN2cv3dnn14dnn4_v2025061919GatherElementsLayer6createERKNS1_11LayerParamsE","_cv_MSER_setMaxVariation","_std_VecU64_reserve","__ZN2cv4readERKNS_8FileNodeERNS_9SparseMatERKS3_","__ZN2cvmiERKNS_7Scalar_IdEERKNS_7MatExprE","__ZN2cv3ocl7ProgramC2ERKS1_","__ZN2cv12VideoCapture7releaseEv","__ZN2cv3maxERKNS_11_InputArrayES2_RKNS_12_OutputArrayE","_std_VecDMatch_shrink_to_fit","_cv_quality_QualityMSE_create","_cv_Mat_eye","__ZN2cv13drawKeypointsERKNS_11_InputArrayERKNSt3__16vectorINS_8KeyPointENS3_9allocatorIS5_EEEERKNS_17_InputOutputArrayERKNS_7Scalar_IdEENS_16DrawMatchesFlagsE","_WebPMuxGetFrame","__ZN2cv3dnn14dnn4_v202506193Net7forwardERKNSt3__112basic_stringIcNS3_11char_traitsIcEENS3_9allocatorIcEEEE","_std_VecF16_get","__ZN2cv17FlannBasedMatcher15radiusMatchImplERKNS_11_InputArrayERNSt3__16vectorINS5_INS_6DMatchENS4_9allocatorIS6_EEEENS7_IS9_EEEEfS3_b","__ZN2cv3Mat8copySizeERKS0_","__ZN2cv5flann5IndexC1Ev","__ZN2cv3ocl7ContextD2Ev","__ZN2cv3ocl13ProgramSourceC1EOS1_","_cv_CascadeClassifier_create_1","_cv_seamlessClone","_cv_ximgproc_rl_createRLEImage","_cvUseOptimized","_std_VecVecDMatch_new_1","__ZNK2cv9Feature2D5writeERNS_11FileStorageE","__ZN2cv3ocl17isOpenCLActivatedEv","__ZN2cv6detail10SeamFinder13createDefaultEi","__ZN2cveqERKNS_3MatEd","__ZN2cv3ocl5Timer4stopEv","__ZN2cv6detail17check_failed_autoEfRKNS0_12CheckContextE","__ZNK2cv11_InputArray8sameSizeERKS0_","_std_VecRotatedRect_new_1","__ZNK2cv7MatExpr4diagEi","_cv_KalmanFilter_set_statePost","_cv_calcOpticalFlowPyrLK_1","__ZN2cv3ocl5QueueC2ERKNS0_7ContextERKNS0_6DeviceE","_std_VecVecPoint2f_new_1","_cv_SIFT_detect","__ZN2cv6detail8tracking21TrackerStateEstimator8estimateERKNSt3__16vectorINS4_INS3_4pairINS_3PtrINS1_18TrackerTargetStateEEEfEENS3_9allocatorIS9_EEEENSA_ISC_EEEE","__ZN2cv10AsyncArrayC2Ev","__ZN2cv6detail12DpSeamFinderC2ENSt3__112basic_stringIcNS2_11char_traitsIcEENS2_9allocatorIcEEEE","__Z21std_VecVecChar_extendP10VecVecCharS0_","__ZN2cv4readERKNS_8FileNodeERff","__ZN2cv6detail11PlaneWarper7warpRoiENS_5Size_IiEERKNS_11_InputArrayES6_","_std_VecU64_shrink_to_fit","_cv_Stitcher_set_registrationResol","_cv_Mat_create_8","_std_VecPoint3i_push_back","__ZN2cv12KalmanFilterC1Eiiii","_cv_KAZE_getThreshold","_cv_RNG_create_1","_cv_magnitude","_cvColorToScalar","_cv_HOGDescriptor_computeGradient","_cvError","_cv_CLAHE_apply","__ZN2cv6detail8tracking12TrackerModelD2Ev","_cv_UMat_create_9","__ZN2cv4sqrtERKNS_10softdoubleE","__ZNK2cv3dnn14dnn4_v202506193Net5emptyEv","__ZN2cv6detail16MultiBandBlender4feedERKNS_11_InputArrayES4_NS_6Point_IiEE","_cv_HOGDescriptor_load","__ZN2cv3ocl7Image2DaSERKS1_","_cv_quality_QualityPSNR_compute_static","__ZN2cv15groupRectanglesERNSt3__16vectorINS_5Rect_IiEENS0_9allocatorIS3_EEEERNS1_IiNS4_IiEEEEid","__ZNK2cv17DescriptorMatcher20DescriptorCollection13getDescriptorEi","_std_VecPoint2f_length","__ZN2cv3dnn14dnn4_v2025061917DepthToSpaceLayer6createERKNS1_11LayerParamsE","__ZN2cv7fisheye23initUndistortRectifyMapERKNS_11_InputArrayES3_S3_S3_RKNS_5Size_IiEEiRKNS_12_OutputArrayESA_","__ZN2cv3ocl7ProgramC1EOS1_","__ZN2cv11cartToPolarERKNS_11_InputArrayES2_RKNS_12_OutputArrayES5_b","__ZN2cv4UMatC1ERKS0_RKNS_5Rect_IiEE","__ZN2cv10checkRangeERKNS_11_InputArrayEbPNS_6Point_IiEEdd","__ZN2cv7quality10QualityMSE6createERKNS_11_InputArrayE","__ZN2cv11compareHistERKNS_9SparseMatES2_i","_cv_Stitcher_get_interpolationFlags","__ZN2cv9AlgorithmD0Ev","_cv_RotatedRect_boundingRect","__ZNK2cv6detail8tracking18TrackerTargetState15getTargetHeightEv","_WebPDemuxPrevFrame","_std_VecVec6f_new","__ZN2cv15NAryMatIteratorC2EPPKNS_3MatEPPhi","__ZN2cv3hal11cvtHSVtoBGREPKhmPhmiiiibbb","__ZN2cv7quality11QualityGMSD9_mat_dataC2ERKNS_4UMatE","__ZNK2cv5BRISK14getDefaultNameEv","_cv_SIFT_detectAndCompute","_cv_dnn_Net_readNetFromTFLiteBytes","__ZNK2cv11_InputArray6sizendEPii","__ZN2cv20AgastFeatureDetector6createEibNS0_12DetectorTypeE","__ZNK2cv3dnn14dnn4_v202506193Net4Impl10getLayerIdERKNSt3__112basic_stringIcNS4_11char_traitsIcEENS4_9allocatorIcEEEE","__ZN2cv3hal4or8uEPKhmS2_mPhmiiPv","__ZN2cv15NAryMatIteratorC2Ev","_cv_ximgproc_EdgeBoxes_getBoundingBoxes","__ZN2cv5aruco5BoardC1Ev","__ZN2cv3dnn14dnn4_v202506193Net14addLayerToPrevERKNSt3__112basic_stringIcNS3_11char_traitsIcEENS3_9allocatorIcEEEESB_RKiRNS1_11LayerParamsE","_std_VecVec4i_get_p","__ZN2cv13imencodemultiERKNSt3__112basic_stringIcNS0_11char_traitsIcEENS0_9allocatorIcEEEERKNS_11_InputArrayERNS0_6vectorIhNS4_IhEEEERKNSC_IiNS4_IiEEEE","__ZN2cv3dnn14dnn4_v2025061910AsinhLayer6createERKNS1_11LayerParamsE","__ZN2cv4UMatC2ERKS0_RKNS_5RangeES5_","__ZN2cv9SparseMat7newNodeEPKim","__ZN2cv3dctERKNS_11_InputArrayERKNS_12_OutputArrayEi","__ZN2cv3ocl7Context14setUserContextENSt3__110type_indexERKNS2_10shared_ptrINS1_11UserContextEEE","_cvMulSpectrums","__ZN2cv17distanceTransformERKNS_11_InputArrayERKNS_12_OutputArrayEiii","__ZN2cv3hal5DFT1D6createEiiiiPb","__ZN2cv3hal5mul8sEPKamS2_mPamiiPv","__ZN2cv22getFontScaleFromHeightEiii","__ZN2cv3dnn14dnn4_v202506193Net14setInputsNamesERKNSt3__16vectorINS3_12basic_stringIcNS3_11char_traitsIcEENS3_9allocatorIcEEEENS8_ISA_EEEE","_cv_findCirclesGrid","__ZN2cv3ocl5TimerD1Ev","__ZNK2cv3dnn14dnn4_v202506193Net23getUnconnectedOutLayersEv","__ZN2cv6detail14FeatherBlender5blendERKNS_17_InputOutputArrayES4_","__ZN2cv8ximgproc29createStructuredEdgeDetectionERKNSt3__112basic_stringIcNS1_11char_traitsIcEENS1_9allocatorIcEEEENS_3PtrIKNS0_15RFFeatureGetterEEE","__ZN2cv9BFMatcher12knnMatchImplERKNS_11_InputArrayERNSt3__16vectorINS5_INS_6DMatchENS4_9allocatorIS6_EEEENS7_IS9_EEEEiS3_b","_std_VecChar_clone","__ZN2cv6detail19createLaplacePyrGpuERKNS_11_InputArrayEiRNSt3__16vectorINS_4UMatENS4_9allocatorIS6_EEEE","__ZNK2cv11_InputArray6offsetEi","_cv_aruco_detectorParameters_close","_cv_dnn_Net_fromNet","__ZN2cv3ocl13ProgramSourceC2Ev","_cv_UMat_addref","_cv_norm","_std_VecF32_push_back","__ZNK2cv18SimpleBlobDetector14getDefaultNameEv","__ZN2cv9SparseMat5eraseEiiiPm","_cv_pow","__ZN2cv15findCirclesGridERKNS_11_InputArrayENS_5Size_IiEERKNS_12_OutputArrayEiRKNS_3PtrINS_9Feature2DEEE","__ZN2cv16findEssentialMatERKNS_11_InputArrayES2_dNS_6Point_IdEEiddRKNS_12_OutputArrayE","_cvCalcBayesianProb","__ZNK2cv5aruco12CharucoBoard15getMarkerLengthEv","__ZN2cv6detail16createLaplacePyrERKNS_11_InputArrayEiRNSt3__16vectorINS_4UMatENS4_9allocatorIS6_EEEE","_cv_ximgproc_rl_paint","_cv_convertPointsHomogeneous","_cv_solveCubic","_cv_Mat_set_i32_2","_std_VecVec4i_reserve","__ZN2cv7quality14QualityBRISQUEC1ERKNSt3__112basic_stringIcNS2_11char_traitsIcEENS2_9allocatorIcEEEESA_","_cv_VideoWriter_create_1","__ZN2cv17DescriptorMatcher11radiusMatchERKNS_11_InputArrayERNSt3__16vectorINS5_INS_6DMatchENS4_9allocatorIS6_EEEENS7_IS9_EEEEfS3_b","_cv_FaceDetectorYN_setNMSThreshold","_cv_getTextSize","_cv_ximgproc_GraphSegmentation_setMinSize","_std_VecI8_push_back","_std_VecPoint3i_resize","_cv_aruco_Dictionary_create","__ZN2cv3absERKNS_7MatExprE","__ZNK2cv9Exception4whatEv","__ZNK2cv16MatConstIterator4lposEv","__ZN2cv32createFaceDetectionMaskGeneratorEv","__ZN2cv5AKAZE6createENS0_14DescriptorTypeEiifiiNS_4KAZE15DiffusivityTypeEi","_WebPAnimDecoderGetDemuxer","__ZNK2cv21GraphicalCodeDetector6detectERKNS_11_InputArrayERKNS_12_OutputArrayE","_cv_CascadeClassifier_load","__ZN2cv3ocl5QueueD1Ev","__ZNK2cv3ocl6Device17compilerAvailableEv","__ZN2cv19connectedComponentsERKNS_11_InputArrayERKNS_12_OutputArrayEiii","__ZN2cv3Mat19getDefaultAllocatorEv","_cv_Mat_op_sub_i16","__ZN2cv3ocl7Program6createERKNS0_13ProgramSourceERKNSt3__112basic_stringIcNS5_11char_traitsIcEENS5_9allocatorIcEEEERSB_","_cvSquareAcc","_cv_Mat_ptr_uchar_3","_cv_StereoBM_getUniquenessRatio","__ZN2cv3ocl8PlatformaSERKS1_","__ZN2cv6detail17check_failed_autoEbbRKNS0_12CheckContextE","_cv_dnn_Net_readNetFromONNXBytes","__ZNK2cv11VideoWriter14getBackendNameEv","_std_VecI64_set","_cv_thresholdWithMask","_cv_Stitcher_composePanorama_1","__ZNK2cv8Subdiv2D8QuadEdge6isfreeEv","_cv_ORB_setEdgeThreshold","_cv_dilate_1","__ZN2cv17FlannBasedMatcher5clearEv","__ZN2cv3dnn14dnn4_v202506195Layer7forwardERNSt3__16vectorIPNS_3MatENS3_9allocatorIS6_EEEERNS4_IS5_NS7_IS5_EEEESD_","__ZNK2cv3PCA7projectERKNS_11_InputArrayE","__ZN2cv3ocl12PlatformInfoD1Ev","__ZN2cv3dnn14dnn4_v202506195Layer7forwardERKNS_11_InputArrayERKNS_12_OutputArrayES8_","__ZNK2cv8img_hash13BlockMeanHash7getMeanEv","__ZNK2cv11_InputArray8channelsEi","__ZN2cv17calibrateCameraROERKNS_11_InputArrayES2_NS_5Size_IiEEiRKNS_17_InputOutputArrayES7_RKNS_12_OutputArrayESA_SA_SA_SA_SA_SA_iNS_12TermCriteriaE","__ZN2cv6divideEdRKNS_11_InputArrayERKNS_12_OutputArrayEi","_cv_ORB_setNLevels","__ZN2cv10softdoubleC2Ex","_cv_Mat_create_13","_std_VecVecPoint_clear","__ZN2cv3dnn14dnn4_v2025061913blobFromImageERKNS_11_InputArrayERKNS_12_OutputArrayEdRKNS_5Size_IiEERKNS_7Scalar_IdEEbbi","__ZNK2cv16FileNodeIterator9remainingEv","__ZN2cv11FileStorage20getDefaultObjectNameERKNSt3__112basic_stringIcNS1_11char_traitsIcEENS1_9allocatorIcEEEE","__ZN2cv11FileStorage4Impl3eofEv","__ZNK2cv5aruco5Board20getRightBottomCornerEv","_cv_hconcat","__ZN2cv3MatC1ERKNSt3__16vectorIiNS1_9allocatorIiEEEEi","__ZN2cv7MomentsC1Edddddddddd","__ZN2cv3dnn14dnn4_v2025061919getAvailableTargetsENS1_7BackendE","__ZNK2cv5flann11IndexParams6getAllERNSt3__16vectorINS2_12basic_stringIcNS2_11char_traitsIcEENS2_9allocatorIcEEEENS7_IS9_EEEERNS3_INS0_14FlannIndexTypeENS7_ISD_EEEESC_RNS3_IdNS7_IdEEEE","__ZN2cv8ximgproc8thinningERKNS_11_InputArrayERKNS_12_OutputArrayEi","_cv_estimateAffinePartial2D_1","_cvSetSeqBlockSize","_cv_Mat_get_Vec4w","_cvFastArctan","__ZNK2cv13HOGDescriptor5writeERNS_11FileStorageERKNSt3__112basic_stringIcNS3_11char_traitsIcEENS3_9allocatorIcEEEE","__ZN2cv8internal18WriteStructContextD1Ev","_cv_Mat_get_Vec4b","__ZN2cv11FileStorage4Impl19convertToCollectionEiRNS_8FileNodeE","_std_VecF32_extend","__ZNK2cv9Feature2D14getDefaultNameEv","__ZN2cv8clearSeqEP5CvSeq","__ZTv0_n40_NK2cv22SimpleBlobDetectorImpl5writeERNS_11FileStorageE","_std_VecI16_get","_cvGetSize","__ZNK2cv12_OutputArray6neededEv","_std_VecVecPoint3f_get_p","__ZNK2cv8Subdiv2D8nextEdgeEi","_cv_ORB_detect","_std_VecI64_new_1","__ZN2cv3ocl6Kernel6createEPKcRKNS0_13ProgramSourceERKNSt3__112basic_stringIcNS7_11char_traitsIcEENS7_9allocatorIcEEEEPSD_","__ZNK2cv5MatOp8multiplyERKNS_7MatExprES3_RS1_d","_cv_HOGDescriptor_getWinSigma","__ZN2cv3ocl9KernelArgC1EiPNS_4UMatEiiPKvm","_cv_img_hash_marrHildrethHash_compute","__ZN2cv8Subdiv2D11findNearestENS_6Point_IfEEPS2_","_std_VecVecPoint2f_length","__ZN2cv31createRANSACPointSetRegistratorERKNS_3PtrINS_19PointSetRegistrator8CallbackEEEiddi","__ZN2cv3hal14cvtBGR5x5toBGREPKhmPhmiiibi","_cvSeqSearch","__ZN2cv15solvePnPGenericERKNS_11_InputArrayES2_S2_S2_RKNS_12_OutputArrayES5_bNS_14SolvePnPMethodES2_S2_S5_","__ZN2cv6detail8tracking32TrackerStateEstimatorMILBoosting10updateImplERNSt3__16vectorINS4_INS3_4pairINS_3PtrINS1_18TrackerTargetStateEEEfEENS3_9allocatorIS9_EEEENSA_ISC_EEEE","__ZN2cv7quality11QualitySSIM9_mat_dataC1ERKNS_11_InputArrayE","__ZN2cv15ImageCollectionixEi","__ZN2cv5utils7logging8internal15getGlobalLogTagEv","__ZN2cv6detail18GraphCutSeamFinder4findERKNSt3__16vectorINS_4UMatENS2_9allocatorIS4_EEEERKNS3_INS_6Point_IiEENS5_ISB_EEEERS7_","_cv_aruco_detectorParameters_set_perspectiveRemoveIgnoredMarginPerCell","_cv_connectedComponents_1","_cvReshape","__ZN2cv3dnn14dnn4_v2025061918ChannelsPReLULayer6createERKNS1_11LayerParamsE","__ZNK2cv3ocl6Device21maxConstantBufferSizeEv","_cv_ximgproc_EdgeDrawing_detectEdges","_cv_stylization","__ZN2cv17DescriptorMatcher20DescriptorCollectionC2ERKS1_","__ZN2cv6detail8tracking12TrackerModelC2Ev","__ZN2cv17DescriptorMatcher20DescriptorCollection3setERKNSt3__16vectorINS_3MatENS2_9allocatorIS4_EEEE","__ZNK2cv8FileNode7isNamedEv","__ZN2cv3dnn14dnn4_v2025061913ProposalLayer6createERKNS1_11LayerParamsE","_cv_dnn_Layer_getType","_cvTranspose","_std_VecMat_data","_cv_StereoSGBM_setSpeckleWindowSize","__ZN2cv13stereoRectifyERKNS_11_InputArrayES2_S2_S2_NS_5Size_IiEES2_S2_RKNS_12_OutputArrayES7_S7_S7_S7_idS4_PNS_5Rect_IiEESA_","__ZNK2cv3ocl6Device10vendorNameEv","_cv_Mat_get_Vec4d","__ZN2cv14findHomographyERKNS_11_InputArrayES2_idRKNS_12_OutputArrayEid","_std_VecVecChar_clear","_cvCvtColor","_cv_dnn_AsyncArray_get","_cv_TrackerMIL_close","__ZN2cv5utils5trace7details8traceArgERKNS2_8TraceArgEd","__ZN2cv5utils7logging8internal15writeLogMessageENS1_8LogLevelEPKc","__ZN2cv2LUEPdmiS0_mi","__ZN2cv3dnn14dnn4_v2025061914ScatterNDLayer6createERKNS1_11LayerParamsE","__ZNK2cv13HOGDescriptor6copyToERS0_","__ZN9CvLevMarqD1Ev","__ZNK2cv5MatOp6matmulERKNS_7MatExprES3_RS1_","_cv_calcOpticalFlowPyrLK","__ZN2cv17CascadeClassifierC2ERKNSt3__112basic_stringIcNS1_11char_traitsIcEENS1_9allocatorIcEEEE","_cv_LUT","__ZN2cv3dnn14dnn4_v2025061914LayerNormLayer6createERKNS1_11LayerParamsE","_std_VecPoint3f_push_back","__ZN2cv14seqRemoveSliceEP5CvSeq7CvSlice","__ZNK2cv12GFTTDetector14getDefaultNameEv","__ZN2cv7quality11QualitySSIM7computeERKNS_11_InputArrayES4_RKNS_12_OutputArrayE","__ZNK2cv8Subdiv2D7edgeDstEiPNS_6Point_IfEE","_cv_dnn_Layer_inputNameToIndex","__ZN2cv9Feature2DD1Ev","__ZNK2cv11_InputArray6copyToERKNS_12_OutputArrayERKS0_","__ZN2cv3dnn14dnn4_v2025061920ThresholdedReluLayer6createERKNS1_11LayerParamsE","__ZN2cv4sortERKNS_11_InputArrayERKNS_12_OutputArrayEi","_std_VecPoint_new","_cv_aruco_Dictionary_identify","__ZNK2cv5MatOp12augAssignXorERKNS_7MatExprERNS_3MatE","_cvRemap","__ZNK2cv7MatExpr3colEi","_cv_VideoWriter_close","__ZN2cv3ocl6KernelC1ERKS1_","__ZNK2cv8Subdiv2D10rotateEdgeEii","__ZN2cv3ocl6KernelaSERKS1_","_cv_Scharr","_std_VecPoint3f_free","__ZN2cv5utils2fs6existsERKNSt3__112basic_stringIcNS2_11char_traitsIcEENS2_9allocatorIcEEEE","_WebPPictureImportBGRA","__ZN2cv15KeyPointsFilter27runByPixelsMask2VectorPointERNSt3__16vectorINS_8KeyPointENS1_9allocatorIS3_EEEERNS2_INS2_INS_6Point_IiEENS4_IS9_EEEENS4_ISB_EEEERKNS_3MatE","__ZN2cv3maxERKNS_3MatES2_","_cvLogPolar","_cv_BRISK_create_2","__ZN2cv2ml3SVM4loadERKNSt3__112basic_stringIcNS2_11char_traitsIcEENS2_9allocatorIcEEEE","__ZN2cv2ml9StatModel5trainERKNS_3PtrINS0_9TrainDataEEEi","__ZN2cv11_InputArrayC2ERKNS_7MatExprE","__ZN2cv11FileStorage4Impl25make_write_struct_delayedEPKciS3_","_getCvVersion","__ZN2cv11contourAreaERKNS_11_InputArrayEb","_cv_MSER_setPass2Only","_cv_Mat_get_i32_2","__ZN2cv3dnn14dnn4_v2025061916HardSigmoidLayer6createERKNS1_11LayerParamsE","__ZN9CvLevMarqC1Ev","__ZN2cv3ocl6DeviceC1EPv","_std_VecI64_new","__ZN2cv4UMat4onesEiiiNS_14UMatUsageFlagsE","_std_VecI16_new_1","_cv_clipLine","_WebPPictureImportBGR","_std_VecVec4f_new","_cv_ximgproc_GraphSegmentation_getSigma","_cv_Mat_get_Vec3s","__ZN2cv3ocl7Context14getUserContextENSt3__110type_indexE","__ZN2cv7quality11QualitySSIM7computeERKNS_11_InputArrayE","_std_VecVecPoint3i_set","__ZN2cv12VideoCaptureC2Ev","_cv_MSER_setDelta","_cv_merge","_cv_VideoWriter_isOpened","_std_VecUChar_clone","_cv_stereoRectifyUncalibrated","_cvDCT","_cv_bitwise_and","_cv_dnn_enableModelDiagnostics","__ZN2cv10AsyncArrayD1Ev","__ZN2cv3ocl5Queue6createERKNS0_7ContextERKNS0_6DeviceE","_cv_split","_cv_Subdiv2D_locate","__ZN2cv21decomposeEssentialMatERKNS_11_InputArrayERKNS_12_OutputArrayES5_S5_","__ZNK2cv11FileStorage4Impl16normalizeNodeOfsERmS2_","__ZN2cv3MatC1ERKS0_RKNS_5Rect_IiEE","_cv_aruco_detectorParameters_get_markerBorderBits","__ZNK2cv12VideoCapture3getEi","_VP8LGetInfo","__ZN9CvLevMarq6updateERPK5CvMatRPS0_S5_","__ZN2cv3hal8recip32sEPKimS2_mPimiiPv","__ZN2cv11imreadmultiERKNSt3__112basic_stringIcNS0_11char_traitsIcEENS0_9allocatorIcEEEERNS0_6vectorINS_3MatENS4_ISA_EEEEiii","_cvGraphRemoveVtxByPtr","_std_VecU64_new_1","__ZN2cv3dnn14dnn4_v202506193Net4Impl8setInputERKNS_11_InputArrayERKNSt3__112basic_stringIcNS7_11char_traitsIcEENS7_9allocatorIcEEEEdRKNS_7Scalar_IdEE","_cv_findChessboardCorners","__ZNK2cv17AVIWriteContainer12getStreamPosEv","__ZN2cv6detail8tracking18TrackerTargetState17setTargetPositionERKNS_6Point_IfEE","__ZN2cv3Mat6resizeEmRKNS_7Scalar_IdEE","__ZN2cv3dnn14dnn4_v2025061912LayerFactory17isLayerRegisteredERKNSt3__112basic_stringIcNS3_11char_traitsIcEENS3_9allocatorIcEEEE","__ZN2cv12KalmanFilterC2Ev","_WebPAnimEncoderGetError","_WebPConfigLosslessPreset","__ZN2cv6detail20BundleAdjusterAffine24setUpInitialCameraParamsERKNSt3__16vectorINS0_12CameraParamsENS2_9allocatorIS4_EEEE","__ZNK2cv3dnn14dnn4_v202506193Net4Impl17getLatestLayerPinERKNSt3__16vectorINS1_6detail8LayerPinENS4_9allocatorIS7_EEEE","__ZN2cv13wechat_qrcode12WeChatQRCode14setScaleFactorEf","__ZNK2cv3ocl7Image2D3ptrEv","__ZN2cv9rectangleERKNS_17_InputOutputArrayENS_6Point_IiEES4_RKNS_7Scalar_IdEEiii","__ZN2cv3ocl6KernelC2ERKS1_","__ZN2cv6detail8tracking21TrackerStateEstimatorD2Ev","__ZNK2cv4UMat3dotERKNS_11_InputArrayE","__ZN2cv3ocl7ContextC1Ev","__ZNK2cv12MatAllocator5unmapEPNS_8UMatDataE","__ZN2cv8img_hash18RadialVarianceHash6createEdi","__ZN2cv3hal9cvt32f16fEPKfPNS_6hfloatEi","__ZN2cv6detail8tracking14TrackerSamplerD1Ev","_cv_aruco_detectorParameters_set_aprilTagQuadSigma","__ZN2cv3MatC1EiPKiiRKNS_7Scalar_IdEE","__ZN2cv17FlannBasedMatcherC2ERKNS_3PtrINS_5flann11IndexParamsEEERKNS1_INS2_12SearchParamsEEE","__ZN2cv5flann17KDTreeIndexParamsC2Ei","__ZN2cv9BFMatcher15radiusMatchImplERKNS_11_InputArrayERNSt3__16vectorINS5_INS_6DMatchENS4_9allocatorIS6_EEEENS7_IS9_EEEEfS3_b","_cvAbsDiff","__ZN2cv6detail15GainCompensator19buildSimilarityMaskERKNS_11_InputArrayES4_","__ZN2cv16findEssentialMatERKNS_11_InputArrayES2_dNS_6Point_IdEEiddiRKNS_12_OutputArrayE","__ZN2cv6detail12DpSeamFinder15setCostFunctionENSt3__112basic_stringIcNS2_11char_traitsIcEENS2_9allocatorIcEEEE","_std_VecUChar_length","_cv_estimateChessboardSharpness","__ZN2cv6detail12CameraParamsaSERKS1_","_cvSet2D","_cv_countNonZero","__ZN2cv6copyToERKNS_11_InputArrayERKNS_12_OutputArrayES2_","__ZN2cv3Mat4onesEiii","__ZN2cv6detail15GainCompensator4feedERKNSt3__16vectorINS_6Point_IiEENS2_9allocatorIS5_EEEERKNS3_INS_4UMatENS6_ISB_EEEERKNS3_INS2_4pairISB_hEENS6_ISH_EEEE","__ZN2cv6resizeERKNS_11_InputArrayERKNS_12_OutputArrayENS_5Size_IiEEddi","_cv_ORB_getFastThreshold","__ZN2cv3dnn14dnn4_v2025061921readNetFromTensorflowERKNSt3__112basic_stringIcNS2_11char_traitsIcEENS2_9allocatorIcEEEESA_","__ZN2cv12AsyncPromiseaSERKS0_","__ZN2cv3SVD9backSubstERKNS_11_InputArrayES3_S3_S3_RKNS_12_OutputArrayE","__ZN2cv3ocl7Context10getDefaultEb","__ZN2cv6detail26BestOf2NearestRangeMatcherC1Eibfii","__ZN2cv3dnn14dnn4_v2025061929setInferenceEngineBackendTypeERKNSt3__112basic_stringIcNS2_11char_traitsIcEENS2_9allocatorIcEEEE","__ZN2cv11FileStorage4Impl18writeRawDataBase64EPKvmPKc","__ZN2cv7details20saveFPDenormalsStateERNS0_20FPDenormalsModeStateE","__ZN2cv15NAryMatIteratorC1EPPKNS_3MatEPS1_i","__ZN2cv6detail17BlocksCompensator5applyEiNS_6Point_IiEERKNS_17_InputOutputArrayERKNS_11_InputArrayE","__ZN2cv3hal5morphEiiiPhmS1_miiiiiiiiiiiS1_miiiiiPKdib","__ZN2cv3hal15cvtGraytoBGR5x5EPKhmPhmiii","__ZN2cv7noArrayEv","__ZN2cv11FileStorage4Impl5flushEv","_cv_Mat_set_u16_3","_cv_FaceRecognizerSF_create","_std_VecRotatedRect_reserve","_cv_flann_IndexParams_setInt","_cvGetErrStatus","__ZN2cv6detail20matchesGraphAsStringERNSt3__16vectorINS1_12basic_stringIcNS1_11char_traitsIcEENS1_9allocatorIcEEEENS6_IS8_EEEERNS2_INS0_11MatchesInfoENS6_ISC_EEEEf","_cv_SimpleBlobDetector_empty","__ZN2cv11FileStorageD2Ev","__ZN2cv16FileNodeIteratorC1Ev","_cv_SIFT_getContrastThreshold","__ZN2cv3hal7merge8uEPPKhPhii","__ZN2cv3dnn14dnn4_v202506193Net4Impl14forwardToLayerERNS1_6detail9LayerDataEb","_cvMinEnclosingCircle","_cvClearHist","_std_VecRect_shrink_to_fit","_cv_Subdiv2D_getVoronoiFacetList","__ZN2cv3dnn14dnn4_v202506193Net4Impl15getInputDetailsERNSt3__16vectorIfNS4_9allocatorIfEEEERNS5_IiNS6_IiEEEE","_cv_VideoWriter_write","__ZN2cv8ximgproc12segmentation23createGraphSegmentationEdfi","_cv_mean","__ZN2cvorERKNS_3MatERKNS_7Scalar_IdEE","_cv_calcOpticalFlowFarneback","_WebPDecodeBGRAInto","__ZN2cv6detail19ChannelsCompensator11getMatGainsERNSt3__16vectorINS_3MatENS2_9allocatorIS4_EEEE","__ZNK2cv4UMat3mulERKNS_11_InputArrayEd","_cv_Mat_elemSize1","__ZN2cv7fisheye14solvePnPRansacERKNS_11_InputArrayES3_S3_S3_RKNS_12_OutputArrayES6_bifdS6_iNS_12TermCriteriaE","_cv_getDefaultNewCameraMatrix","__ZN2cv3dnn14dnn4_v202506193Net4Impl13allocateLayerEiRKNSt3__13mapIiNS1_6detail11LayerShapesENS4_4lessIiEENS4_9allocatorINS4_4pairIKiS7_EEEEEE","__ZN2cv3hal5cmp8sEPKamS2_mPhmiiPv","__ZN2cv5utils5trace7details6Region4Impl11leaveRegionERNS2_23TraceManagerThreadLocalE","__ZNK2cv11_InputArray9getGpuMatEv","_std_VecU32_clear","_cv_img_hash_BlockMeanHash_getMean","__ZN2cv3dnn14dnn4_v2025061913QuantizeLayer6createERKNS1_11LayerParamsE","__ZN2cv12KalmanFilterC1Ev","__ZN2cv12mulSpectrumsERKNS_11_InputArrayES2_RKNS_12_OutputArrayEib","__ZN2cv40filterHomographyDecompByVisibleRefpointsERKNS_11_InputArrayES2_S2_S2_RKNS_12_OutputArrayES2_","_cvSort","__ZN2cv7fisheye13projectPointsERKNS_11_InputArrayERKNS_12_OutputArrayES3_S3_S3_S3_dS6_","__ZN2cv16PyRotationWarper12warpBackwardERKNS_11_InputArrayES3_S3_iiNS_5Size_IiEERKNS_12_OutputArrayE","_cv_KalmanFilter_set_measurementMatrix","__ZN2cv13HOGDescriptor14setSVMDetectorERKNS_11_InputArrayE","__ZN2cv6mulAddERKNS_9softfloatES2_S2_","_cv_Mat_op_add_u8","__ZN2cv3ocl6DeviceD1Ev","_cv_createMergeMertens_1","_WebPDemuxNextChunk","__ZN2cv3dnn14dnn4_v202506199CeilLayer6createERKNS1_11LayerParamsE","__ZNK2cv9softfloatgeERKS0_","_cv_UMat_create_2","_std_VecI16_free","__ZN2cv13projectPointsERKNS_11_InputArrayES2_S2_S2_S2_RKNS_12_OutputArrayES5_d","__ZN2cv16findTransformECCERKNS_11_InputArrayES2_RKNS_17_InputOutputArrayEiNS_12TermCriteriaES2_","_cv_sqrBoxFilter","_cv_inpaint","__ZN2cv17CascadeClassifier16detectMultiScaleERKNS_11_InputArrayERNSt3__16vectorINS_5Rect_IiEENS4_9allocatorIS7_EEEERNS5_IiNS8_IiEEEERNS5_IdNS8_IdEEEEdiiNS_5Size_IiEESJ_b","__ZN2cv10PCAComputeERKNS_11_InputArrayERKNS_17_InputOutputArrayERKNS_12_OutputArrayES8_d","__ZN2cv3ocl5QueueC2Ev","_std_VecF16_new_2","__ZN2cv6detail15SphericalWarper9buildMapsENS_5Size_IiEERKNS_11_InputArrayES6_RKNS_12_OutputArrayES9_","__ZN2cv6detail8tracking21TrackerStateEstimatorD1Ev","__ZN2cv3MatC2EiPKiiRKNS_7Scalar_IdEE","__ZN2cv11FileStorage4Impl12getsFromFileEPci","__ZNK2cv3ocl6Device21intelSubgroupsSupportEv","_cvTrace","__ZN2cv17FlannBasedMatcher3addERKNS_11_InputArrayE","__ZNK2cv3Mat11reinterpretEi","__ZN2cvmiERKNS_7MatExprERKNS_7Scalar_IdEE","__ZNK2cv11_InputArray12isContinuousEi","_cv_convexHull2f","__ZN2cv2ml9ParamGridC2Ev","_cv_BackgroundSubtractorMOG2_create_1","_cv_pointPolygonTest","__ZN2cv5utils12findDataFileERKNSt3__112basic_stringIcNS1_11char_traitsIcEENS1_9allocatorIcEEEEPKcPKNS1_6vectorIS7_NS5_IS7_EEEESG_","_WebPMuxAssemble","_cv_CascadeClassifier_getOriginalWindowSize","__ZN2cvmlERKNS_3MatERKNS_7MatExprE","__ZN2cv15ImageCollection4Impl5beginEPS0_","__ZN2cv13wechat_qrcode12WeChatQRCode14getScaleFactorEv","_cv_aruco_arucoDetector_close","_cv_checkChessboard","_cv_StereoSGBM_close","_cv_StereoSGBM_getSpeckleWindowSize","__ZN2cv4UMatC1ERKS0_","_cv_ximgproc_EdgeBoxes_setMaxBoxes","__ZNK2cv6detail8tracking14TrackerSampler11getSamplersEv","__ZN2cv6detail8tracking17TrackerSamplerCSC7setModeEi","__ZN2cv11minAreaRectERKNS_11_InputArrayE","__ZN2cv3hal6add32fEPKfmS2_mPfmiiPv","__ZNK2cv5MatOp3absERKNS_7MatExprERS1_","__ZN2cv4UMat8copySizeERKS0_","__ZN2cv3ocl7Image2DC2ERKNS_4UMatEbb","_cv_Mat_set_Vec6d","_cvOrS","__ZN2cv11FileStorage4Impl10parseErrorEPKcRKNSt3__112basic_stringIcNS4_11char_traitsIcEENS4_9allocatorIcEEEES3_i","_cv_UMat_row","__ZN2cv3ocl5QueueC2EOS1_","_cv_ximgproc_EdgeBoxes_setAlpha","__ZN2cv5utils7logging14registerLogTagEPNS1_6LogTagE","__ZN2cv4idftERKNS_11_InputArrayERKNS_12_OutputArrayEii","_cvPtr1D","__ZNK2cv7MatExpr4sizeEv","__ZTv0_n72_NK2cv12GFTTDetector14getDefaultNameEv","_cv_imwrite_1","_std_VecPoint3i_data","_std_VecF32_set","_std_VecPoint_resize","__ZNK2cv16FileNodeIterator7equalToERKS0_","__ZNK2cv8FileNodeixERKNSt3__112basic_stringIcNS1_11char_traitsIcEENS1_9allocatorIcEEEE","__ZN2cv3ocl13ProgramSourceD1Ev","__ZN2cv6detail8tracking21TrackerStateEstimator6updateERNSt3__16vectorINS4_INS3_4pairINS_3PtrINS1_18TrackerTargetStateEEEfEENS3_9allocatorIS9_EEEENSA_ISC_EEEE","__ZN2cv10PCAComputeERKNS_11_InputArrayERKNS_17_InputOutputArrayERKNS_12_OutputArrayEd","__ZN2cv5aruco5BoardC2Ev","_cv_ximgproc_EdgeBoxes_setEta","_cv_QRCodeDetector_detectAndDecodeMulti","__ZN2cv11randShuffleERKNS_17_InputOutputArrayEdPNS_3RNGE","__ZN2cv6detail16MultiBandBlender7prepareENS_5Rect_IiEE","__ZN2cv6detail17CylindricalWarper4warpERKNS_11_InputArrayES4_S4_iiRKNS_12_OutputArrayE","__ZN2cv8filter2DERKNS_11_InputArrayERKNS_12_OutputArrayEiS2_NS_6Point_IiEEdi","__ZN2cv8img_hash18radialVarianceHashERKNS_11_InputArrayERKNS_12_OutputArrayEdi","__ZN2cv6detail24check_failed_MatChannelsEiRKNS0_12CheckContextE","_std_VecI8_data","__ZN2cv6detail8tracking11ClfMilBoostC1Ev","__ZN2cv12equalizeHistERKNS_11_InputArrayERKNS_12_OutputArrayE","__ZN2cv3ocl6DeviceaSERKS1_","__ZN2cv11FileStorage4Impl9closeFileEv","_cvSetImageCOI","__ZNK2cv5aruco12CharucoBoard19getNearestMarkerIdxEv","_cv_addWeighted","__ZN2cv3dnn14dnn4_v202506193Net14getPerfProfileERNSt3__16vectorIdNS3_9allocatorIdEEEE","__ZN2cv7TrackerD0Ev","_std_VecRotatedRect_clear","__ZN2cv7quality14QualityBRISQUE6createERKNSt3__112basic_stringIcNS2_11char_traitsIcEENS2_9allocatorIcEEEESA_","__ZN2cv11FileStorageC2ERKNSt3__112basic_stringIcNS1_11char_traitsIcEENS1_9allocatorIcEEEEiS9_","_std_VecF32_new","__ZN2cv10xobjdetect10WBDetector6createEv","__ZN2cv3dnn14dnn4_v202506193Net4Impl16getOutputDetailsERNSt3__16vectorIfNS4_9allocatorIfEEEERNS5_IiNS6_IiEEEE","__ZN2cv3Mat10deallocateEv","__ZNK2cv17AVIWriteContainer14isOpenedStreamEv","__ZNK2cv3ocl6Device25preferredVectorWidthFloatEv","_cv_ORB_getWTA_K","__ZNK2cv8img_hash16MarrHildrethHash8getAlphaEv","__ZN2cv3dnn14dnn4_v202506195Layer9tryAttachERKNS_3PtrINS1_11BackendNodeEEE","__ZN2cv6detail8tracking32TrackerStateEstimatorMILBoostingC1Ei","_WebPDemuxDelete","__ZN2cv3ocl6KernelD2Ev","_cv_BRISK_getOctaves","_cv_illuminationChange","_cv_matMulDeriv","_cv_xobjdetect_WBDetector_detect","_cv_FlannBasedMatcher_knnMatch","_cv_Mat_get_Vec4f","__ZN2cv11VideoWriter6fourccEcccc","__ZNK2cv3Mat7reshapeEiiPKi","__ZN2cv4normERKNS_11_InputArrayES2_iS2_","_cvAvg","__ZN2cv3ocl6DeviceC1EOS1_","_cv_KAZE_getDiffusivity","_std_VecVecPoint2f_get_p","_cv_batchDistance","_cv_quality_QualitySSIM_create","__ZN2cvanERKNS_3MatES2_","__ZN2cv15haveImageReaderERKNSt3__112basic_stringIcNS0_11char_traitsIcEENS0_9allocatorIcEEEE","__ZNK2cv4UMat6handleENS_10AccessFlagE","__ZN2cv6detail8tracking32TrackerStateEstimatorMILBoosting21TrackerMILTargetState11setTargetFgEb","__ZN2cv11bitwise_notERKNS_11_InputArrayERKNS_12_OutputArrayES2_","__ZNK2cv11FileStorage4rootEi","_cv_Mat_op_mul_u16","__ZN2cv11FileStorage4Impl16startWriteStructEPKciS3_","_std_VecU64_clear","__ZN2cv3hal8split32sEPKiPPiii","_cvStdErrReport","__ZN2cv8subtractERKNS_11_InputArrayES2_RKNS_12_OutputArrayES2_i","_std_VecF64_new","_std_VecVecPoint2f_new","__ZN2cv16ParallelLoopBodyD2Ev","__ZNK2cv3ocl6Device23nativeVectorWidthDoubleEv","_cv_Mat_toVecUChar","__ZN2cv5utils5trace7details6Region17LocationExtraDataC2ERKNS3_21LocationStaticStorageE","__ZN2cv6detail8tracking32TrackerStateEstimatorMILBoosting23setCurrentConfidenceMapERNSt3__16vectorINS3_4pairINS_3PtrINS1_18TrackerTargetStateEEEfEENS3_9allocatorIS9_EEEE","_std_VecMat_get_p","__ZN2cv25getOptimalNewCameraMatrixERKNS_11_InputArrayES2_NS_5Size_IiEEdS4_PNS_5Rect_IiEEb","__ZN2cv11writeScalarERNS_11FileStorageERKNSt3__112basic_stringIcNS2_11char_traitsIcEENS2_9allocatorIcEEEE","__ZN2cv16UMatDataAutoLockD2Ev","_cv_BRISK_create","_std_VecU32_new_1","_cv_bitwise_not","_cvCalcArrBackProjectPatch","__ZN2cv5flann5IndexC2ERKNS_11_InputArrayERKNS0_11IndexParamsEN7cvflann16flann_distance_tE","_std_VecF16_free","__ZN2cv16cvtColorTwoPlaneERKNS_11_InputArrayES2_RKNS_12_OutputArrayEiNS_13AlgorithmHintE","__ZN2cv8internal15IntrinsicParamsplERKNS_3MatE","__ZN2cv9AlgorithmC1Ev","_WebPDecodeBGRA","__ZN2cv9ExceptionD0Ev","__ZN2cv3ipp18setUseIPP_NotExactEb","__ZN2cv16videoio_registry14getBackendNameENS_16VideoCaptureAPIsE","_cv_KalmanFilter_predict_1","__ZN2cv15ImageCollectionC2ERKNSt3__112basic_stringIcNS1_11char_traitsIcEENS1_9allocatorIcEEEEi","__ZN2cv5aruco5BoardC1ERKNS_3PtrINS1_4ImplEEE","_cv_ximgproc_StructuredEdgeDetection_computeOrientation","_cv_aruco_detectorParameters_set_minOtsuStdDev","__ZN2cv4UMataSERKNS_7Scalar_IdEE","_cv_ximgproc_PeiLinNormalization","_cv_inRange","__ZNK2cv5MatOp15augAssignDivideERKNS_7MatExprERNS_3MatE","__ZNK2cv3dnn14dnn4_v202506193Net20getMemoryConsumptionERKNSt3__16vectorIiNS3_9allocatorIiEEEERmSA_","_cv_pyrDown","__ZN2cv12VideoCaptureC1Eii","__ZN2cv8Subdiv2D11deletePointEi","__ZN2cv3dnn14dnn4_v2025061918DeconvolutionLayer6createERKNS1_11LayerParamsE","_cv_approxPolyDP2f","__ZN2cv8KeyPoint7overlapERKS0_S2_","_cv_AKAZE_getDescriptorChannels","_std_VecKeyPoint_data","__Z19cv_UsacParams_c2cpp10UsacParams","__ZNK2cv3ocl6Device16maxReadImageArgsEv","__ZN2cv11recoverPoseERKNS_11_InputArrayES2_S2_S2_RKNS_12_OutputArrayES5_RKNS_17_InputOutputArrayE","_cv_VideoCapture_close","_std_VecKeyPoint_push_back","__ZN2cv16getTickFrequencyEv","__ZN2cv8img_hash11ImgHashBaseC1Ev","__ZN2cv20edgePreservingFilterERKNS_11_InputArrayERKNS_12_OutputArrayEiff","_cv_img_hash_colorMomentHash_compute","__Z18ErrorCallbackProxyiPKcS0_S0_iPv","__ZN2cv5flann5Index7releaseEv","_cv_MSER_getEdgeBlurSize","__ZN2cv3hal10warpAffineEiPKhmiiPhmiiPKdiiS5_","__ZNK2cv3ocl8internal12ProgramEntrycvRNS0_13ProgramSourceEEv","_cv_UMat_checkVector","__ZN2cv3hal8split64sEPKxPPxii","_cvHoughLines2","_cvWarpAffine","__ZN2cv16FileNodeIteratorppEi","__ZN2cv4swapERNS_4UMatES1_","__ZN2cv3LDA15subspaceProjectERKNS_11_InputArrayES3_S3_","__ZN2cv6detail7Blender5blendERKNS_17_InputOutputArrayES4_","__ZN2cv9watershedERKNS_11_InputArrayERKNS_17_InputOutputArrayE","_cvSVD","__ZN2cv9softfloatC1Ey","__ZN2cv11FileStorage4Impl32check_if_write_struct_is_delayedEb","__ZN2cv16PyRotationWarper7warpRoiENS_5Size_IiEERKNS_11_InputArrayES5_","__ZN2cv4FASTERKNS_11_InputArrayERNSt3__16vectorINS_8KeyPointENS3_9allocatorIS5_EEEEib","_cv_HoughLinesPointSet","_cv_ellipse_1","__ZNK2cv8FileNode5emptyEv","_std_VecVecPoint2f_length_i","_cv_VideoWriter_create","__ZN2cv4UMat5zerosEiPKiiNS_14UMatUsageFlagsE","__ZNK2cv10softdoublermERKS0_","_cv_dnn_Net_empty","__ZN2cv11findNonZeroERKNS_11_InputArrayERKNS_12_OutputArrayE","__ZN2cv3hal5LU64fEPdmiS1_mi","_std_VecVecPoint3f_get","_cv_quality_QualitySSIM_close","__ZN2cv14QRCodeDetector21detectAndDecodeCurvedERKNS_11_InputArrayERKNS_12_OutputArrayES6_","_cv_VideoCapture_create_1","_cvAvgSdv","_cvSetErrStatus","__ZN2cv9broadcastERKNS_11_InputArrayES2_RKNS_12_OutputArrayE","__ZN2cv5aruco16extendDictionaryEiiRKNS0_10DictionaryEi","__Z16logCallbackProxyN2cv5utils7logging8LogLevelEPKc","__ZN2cv8parallel21setParallelForBackendERKNSt3__112basic_stringIcNS1_11char_traitsIcEENS1_9allocatorIcEEEEb","__ZN2cv3dnn14dnn4_v202506195Layer16forward_fallbackERKNS_11_InputArrayERKNS_12_OutputArrayES8_","_cvSetND","_cv_boxPoints","_cv_solveP3P","__ZN2cv3dnn14dnn4_v202506193Net4ImplD2Ev","__ZN2cv11createCLAHEEdNS_5Size_IiEE","_std_VecVecPoint3i_data","__ZNK2cv3ocl6Device24preferredVectorWidthHalfEv","_cv_HOGDescriptor_close","__ZN2cv11FileStorage4Impl4openEPKciS3_","_cv_imread","__ZN2cv4readERKNS_8FileNodeERxx","__ZNK2cv3ocl6Device17imageMaxArraySizeEv","__ZNK2cv3ocl7Context3ptrEv","__ZN2cv3dnn14dnn4_v2025061912LayerFactory15unregisterLayerERKNSt3__112basic_stringIcNS3_11char_traitsIcEENS3_9allocatorIcEEEE","_cv_FastFeatureDetector_getDefaultName","__ZN2cv3dnn14dnn4_v2025061916readNetFromCaffeEPKcmS3_m","__ZN2cv20fastNlMeansDenoisingERKNS_11_InputArrayERKNS_12_OutputArrayERKNSt3__16vectorIfNS6_9allocatorIfEEEEiii","_cv_BRISK_create_3","_cv_HOGDescriptor_setSVMDetector","__ZN2cv4UMat15getStdAllocatorEv","__ZN2cv6detail11PlaneWarper15detectResultRoiENS_5Size_IiEERNS_6Point_IiEES6_","__ZN2cv3dnn14dnn4_v202506199SqrtLayer6createERKNS1_11LayerParamsE","_cv_dnn_Net_readNet","__ZN2cv3hal15cvtBGR5x5toGrayEPKhmPhmiii","_cv_ximgproc_EdgeBoxes_getClusterMinMag","__ZNK2cv11FileStorageixERKNSt3__112basic_stringIcNS1_11char_traitsIcEENS1_9allocatorIcEEEE","__ZN2cv3LDAD1Ev","_std_VecChar_new_2","__ZN2cv5flann17KDTreeIndexParamsC1Ei","_cv_reprojectImageTo3D","__ZN2cv3dnn14dnn4_v202506193Net4ImplC1Ev","__ZTv0_n24_N2cv9Feature2DD1Ev","_cv_AgastFeatureDetector_create","__ZN2cv10TrackerMILD2Ev","__ZNK2cv9Algorithm5writeERNS_11FileStorageERKNSt3__112basic_stringIcNS3_11char_traitsIcEENS3_9allocatorIcEEEE","_cvCreateStructuringElementEx","__ZN2cv3hal3logEPKdPdi","__ZN2cv18reprojectImageTo3DERKNS_11_InputArrayERKNS_12_OutputArrayES2_bi","_cv_KAZE_setThreshold","__ZNK2cv3ocl6Device15image2DMaxWidthEv","_cvReduce","_cvSplit","_cv_KAZE_getDefaultName","__ZN2cv16TLSDataContainerC2Ev","_cv_CascadeClassifier_getFeatureType","_std_VecI8_resize","_WebPPictureView","__ZN2cv18initCameraMatrix2DERKNS_11_InputArrayES2_NS_5Size_IiEEd","__ZN2cv12VideoCapture4openERKNSt3__112basic_stringIcNS1_11char_traitsIcEENS1_9allocatorIcEEEEi","__ZN2cv3hal7normL1_EPKfS2_i","_cv_aruco_detectorParameters_set_aprilTagDeglitch","__ZNK2cv6detail8tracking14TrackerSampler10getSamplesEv","__ZN2cv11RNG_MT199377uniformEdd","__ZN2cv4PSNRERKNS_11_InputArrayES2_d","_cv_copyTo","_cv_Mat_reshape_1","__ZN2cv13applyColorMapERKNS_11_InputArrayERKNS_12_OutputArrayEi","__ZN2cv17cornerMinEigenValERKNS_11_InputArrayERKNS_12_OutputArrayEiii","__ZN2cv5MatOpC2Ev","__Z7cvFloorRKN2cv9softfloatE","_cvEllipse2Poly","_cv_StereoBM_setUniquenessRatio","_std_VecF16_clear","_cv_StereoBM_setNumDisparities","__ZN2cv3ocl17convertFromBufferEPvmiiiRNS_4UMatE","__ZN2cv5MatOpD1Ev","_cv_StereoBM_getTextureThreshold","__ZN2cv6detail8tracking32TrackerStateEstimatorMILBoostingD1Ev","__ZN2cv6detail11PlaneWarper4warpERKNS_11_InputArrayES4_S4_S4_iiRKNS_12_OutputArrayE","_cvGetRows","__ZN2cv3hal9absdiff8sEPKamS2_mPamiiPv","__ZN2cv2LUEPfmiS0_mi","__ZN2cv6detail20BundleAdjusterReproj9calcErrorERNS_3MatE","__ZTv0_n72_NK2cv5AKAZE14getDefaultNameEv","_std_VecI16_reserve","__ZN2cv3dnn14dnn4_v2025061925getInferenceEngineVPUTypeEv","__ZN2cv4UMat10deallocateEv","_std_VecVecPoint2f_data","__ZN2cv9RodriguesERKNS_11_InputArrayERKNS_12_OutputArrayES5_","__ZN2cv16ParallelLoopBodyD0Ev","__ZN2cv8ximgproc17createEdgeDrawingEv","_std_VecRotatedRect_length","_cv_MSER_getMaxVariation","__ZNK2cv4UMat9locateROIERNS_5Size_IiEERNS_6Point_IiEE","__ZN2cv3hal6cmp64fEPKdmS2_mPhmiiPv","__ZN2cv3hal19cvtTwoPlaneYUVtoBGREPKhmPhmiiibiNS_13AlgorithmHintE","__ZNK2cv4UMat1tEv","_cv_ximgproc_RFFeatureGetter_getFeatures","_WebPSetWorkerInterface","__ZN2cv21BaseCascadeClassifierD1Ev","__ZN2cv3LDA4loadERKNS_11FileStorageE","__ZN2cv10AsyncArrayD2Ev","__ZN2cv11VideoWriterD2Ev","__ZN2cv5flann5Index4loadERKNS_11_InputArrayERKNSt3__112basic_stringIcNS5_11char_traitsIcEENS5_9allocatorIcEEEE","__ZN2cv2ml12randMVNormalERKNS_11_InputArrayES3_iRKNS_12_OutputArrayE","__ZNK2cv3Mat5emptyEv","__ZN2cv5utils30getConfigurationParameterPathsEPKcRKNSt3__16vectorINS3_12basic_stringIcNS3_11char_traitsIcEENS3_9allocatorIcEEEENS8_ISA_EEEE","__ZN2cv6detail11PlaneWarper9buildMapsENS_5Size_IiEERKNS_11_InputArrayES6_RKNS_12_OutputArrayES9_","_cvOr","__ZN2cv6detail29restoreImageFromLaplacePyrGpuERNSt3__16vectorINS_4UMatENS1_9allocatorIS3_EEEE","_WebPMalloc","_WebPGetEncoderVersion","__ZNK2cv12_OutputArray9fixedTypeEv","__ZN2cv6detail12DpSeamFinder21updateLabelsUsingSeamEiiRKNSt3__16vectorINS_6Point_IiEENS2_9allocatorIS5_EEEEb","__ZN2cv3dnn14dnn4_v202506195Layer8finalizeERKNSt3__16vectorIPNS_3MatENS3_9allocatorIS6_EEEERNS4_IS5_NS7_IS5_EEEE","_cv_UMat_copyTo","_WebPAnimEncoderDeleteChunk","_cv_aruco_detectorParameters_get_cornerRefinementMinAccuracy","_replaceWriteLogMessageEx","__ZNK2cv3dnn14dnn4_v202506193Net8getFLOPSEiRKNSt3__16vectorINS4_IiNS3_9allocatorIiEEEENS5_IS7_EEEE","__ZN2cv11addWeightedERKNS_11_InputArrayEdS2_ddRKNS_12_OutputArrayEi","_cvFlushSeqWriter","__ZN2cv9undistortERKNS_11_InputArrayERKNS_12_OutputArrayES2_S2_S2_","__ZNK2cv6detail8tracking12TrackerModel18getLastTargetStateEv","_std_VecChar_length","__ZNK2cv8img_hash11ImgHashBase7compareERKNS_11_InputArrayES4_","__ZN2cv6detail8tracking12TrackerModel24setTrackerStateEstimatorENS_3PtrINS1_21TrackerStateEstimatorEEE","__ZN2cv6detail12DpSeamFinder16resolveConflictsERKNS_3MatES4_NS_6Point_IiEES6_RS2_S7_","__ZN2cv6detail18check_failed_falseEbRKNS0_12CheckContextE","_std_VecVec4i_data","__ZN2cv11sepFilter2DERKNS_11_InputArrayERKNS_12_OutputArrayEiS2_S2_NS_6Point_IiEEdi","__ZN2cv3ocl5QueueC2ERKS1_","_std_VecU8_resize","__ZTv0_n40_NK2cv9Feature2D5writeERNS_11FileStorageE","__ZN2cv2ml9TrainData12getSubVectorERKNS_3MatES4_","__ZNK2cv5aruco12CharucoBoard20getChessboardCornersEv","_cv_GFTTDetector_setGradientSize","__ZN2cv16FaceRecognizerSF6createERKNSt3__112basic_stringIcNS1_11char_traitsIcEENS1_9allocatorIcEEEES9_ii","__ZN2cv15ImageCollection4ImplixEi","__ZN2cv4UMat4onesEiPKiiNS_14UMatUsageFlagsE","__ZN2cv9SparseMatC2EiPKii","_cvGetRawData","_cv_dct","_cv_fisheye_distortPoints_1","_std_VecVecChar_new","_cv_canny","__ZN2cv3PCAclERKNS_11_InputArrayES3_ii","__ZN2cv19QRCodeDetectorArucoC1ERKNS0_6ParamsE","__ZN2cv7MomentsC1Ev","_cv_validateDisparity","__ZN2cv3dnn14dnn4_v2025061911MatMulLayer6createERKNS1_11LayerParamsE","_cvWriteFrame","_cv_UMat_create_8","_std_VecPoint3f_new","__ZNK2cv13HOGDescriptor17getDescriptorSizeEv","_cv_UMat_isSubmatrix","__ZN2cv28connectedComponentsWithStatsERKNS_11_InputArrayERKNS_12_OutputArrayES5_S5_iii","_cv_absdiff","__ZN2cv16estimateAffine3DERKNS_11_InputArrayES2_RKNS_12_OutputArrayES5_dd","_WebPGetFeaturesInternal","_WebPPictureInitInternal","__ZN2cv3dnn14dnn4_v2025061910SwishLayer6createERKNS1_11LayerParamsE","__ZNK2cv11_InputArray6copyToERKNS_12_OutputArrayE","__ZNK2cv12_OutputArray6assignERKNS_4UMatE","_cvPyrMeanShiftFiltering","_std_VecVecPoint2f_get","__ZNK2cv9SparseMat6copyToERNS_3MatE","_cvGraphAddVtx","__ZN2cv3LDA7computeERKNS_11_InputArrayES3_","_cv_StereoBM_setPreFilterSize","_SharpYuvConvertWithOptions","_cv_Mat_sqrt","_cvMorphologyEx","_cv_accumulate","_CvStatus_close","__ZN2cv3dnn14dnn4_v202506193Net4Impl16initVkComBackendEv","__ZN2cv6detail11MatchesInfoaSERKS1_","__ZN2cv3PCAC2Ev","__ZN2cv3ocl8internal14isOpenCLForcedEv","__ZN2cv11writeScalarERNS_11FileStorageEi","__ZN2cv3MatD1Ev","__ZN2cv12AsyncPromise12setExceptionESt13exception_ptr","__ZN2cv3ocl7ProgramC1ERKS1_","_std_VecRect_push_back","__ZN2cv9ExceptionC2Ev","_cv_dft","_std_VecI64_new_2","_cvConvertMaps","__ZN2cv17DescriptorMatcher20DescriptorCollectionC1ERKS1_","__ZN2cv27CirclesGridFinderParametersC1Ev","_cv_minAreaRect2f","_cv_sort","_cv_dnn_Layer_getName","__ZNK2cv12MatAllocator3mapEPNS_8UMatDataENS_10AccessFlagE","_cv_BRISK_detectAndCompute","__ZN2cv20createMergeRobertsonEv","_cv_GFTTDetector_setMaxFeatures","__ZNK2cv12_OutputArray6assignERKNS_3MatE","__ZN2cv17AVIWriteContainer14putStreamBytesEPKhi","_cv_norm_1","__ZN2cv5flann5IndexD1Ev","__ZTv0_n72_NK2cv9Feature2D14getDefaultNameEv","_cv_reduceArgMin","_cv_Mat_zeros","_cv_MSER_getDefaultName","__ZN2cv8UMatData6unlockEv","__ZN2cv12typeToStringEi","__ZN2cv23getClosestEllipsePointsERKNS_11RotatedRectERKNS_11_InputArrayERKNS_12_OutputArrayE","__ZN2cv3dnn14dnn4_v202506198NMSBoxesERKNSt3__16vectorINS_11RotatedRectENS2_9allocatorIS4_EEEERKNS3_IfNS5_IfEEEEffRNS3_IiNS5_IiEEEEfi","__ZN2cv16fitEllipseDirectERKNS_11_InputArrayE","_cvGetReal2D","__ZN2cv10TrackerMILD1Ev","__ZN2cv3dnn14dnn4_v2025061914imagesFromBlobERKNS_3MatERKNS_12_OutputArrayE","_SharpYuvGetConversionMatrix","_std_VecF32_shrink_to_fit","__ZN2cv6detail14FeatherBlender4feedERKNS_11_InputArrayES4_NS_6Point_IiEE","_cv_xobjdetect_WBDetector_write","__ZN2cv17AVIWriteContainer13startWriteAVIEi","__ZN2cv6plugin4impl10DynamicLibC2ERKNSt3__112basic_stringIcNS3_11char_traitsIcEENS3_9allocatorIcEEEE","_cv_estimateAffinePartial2D","__ZN2cv10cvarrToMatEPKvbbiPNS_10AutoBufferIdLm136EEE","_cv_AgastFeatureDetector_getThreshold","__ZN2cv11VideoWriter7releaseEv","__ZN2cv16FaceRecognizerSF6createERKNSt3__112basic_stringIcNS1_11char_traitsIcEENS1_9allocatorIcEEEERKNS1_6vectorIhNS5_IhEEEESE_ii","__ZNK2cv8FileNode8isStringEv","__ZN2cv16UMatDataAutoLockC1EPNS_8UMatDataES2_","__ZN2cv3dnn14dnn4_v2025061916Image2BlobParams21blobRectsToImageRectsERKNSt3__16vectorINS_5Rect_IiEENS3_9allocatorIS6_EEEERS9_RKNS_5Size_IiEE","_cvAbsDiffS","_cv_MSER_getMinDiversity","__ZN2cv3Mat8pop_backEm","_std_VecVec4f_new_2","_std_VecU32_set","_cv_AgastFeatureDetector_detectAndCompute","_cv_Mat_toFmtString","_cv_StereoBM_getMinDisparity","_std_VecVec4f_get_p","__ZN2cv5utils2fs9getParentERKNSt3__112basic_stringIcNS2_11char_traitsIcEENS2_9allocatorIcEEEE","_cv_BRISK_setThreshold","__ZN2cv6circleERKNS_17_InputOutputArrayENS_6Point_IiEEiRKNS_7Scalar_IdEEiii","_std_VecF32_data","_cvKMeans2","__ZN2cv8internal15IntrinsicParams4InitERKNS_3VecIdLi2EEES5_RKNS2_IdLi4EEERKd","__ZN2cv3ocl7Image2DC2EOS1_","_cv_xobjdetect_WBDetector_train","__ZNK2cv11_InputArray4stepEi","_cv_findFundamentalMat","_cv_Mat_set_i8_1","_cv_estimateAffine3D","_std_VecRect2f_clear","__ZN2cv11FileStorage4Impl11parseBase64EPciRNS_8FileNodeE","__ZN2cv3hal6max16uEPKtmS2_mPtmiiPv","__ZN2cv3hal12cvtBGRtoGrayEPKhmPhmiiiib","__ZN2cv10getSeqElemEPK5CvSeqi","__ZN2cv3ocl14vecopTypeToStrEi","__ZN2cv3ocl6Kernel3setEiPKvm","__ZNK2cv14DefaultDeleterI12CvMemStorageEclEPS1_","__ZN2cv3ocl7ContextC2Ev","__ZN2cv5flann20CompositeIndexParamsC1EiiiN7cvflann20flann_centers_init_tEf","_cv_putText_1","_WebPMuxSetChunk","__ZN2cv25fastNlMeansDenoisingMultiERKNS_11_InputArrayERKNS_12_OutputArrayEiiRKNSt3__16vectorIfNS6_9allocatorIfEEEEiii","__ZN2cv15ImageCollection4Impl4readEv","__ZN2cv6detail12AffineWarper4warpERKNS_11_InputArrayES4_S4_iiRKNS_12_OutputArrayE","__ZN2cv9SparseMat6addrefEv","__ZNK2cv5MatOp17augAssignSubtractERKNS_7MatExprERNS_3MatE","_std_VecRect2f_new_2","__ZN2cv6detail11MatchesInfoC1ERKS1_","_cv_subtract","__ZN2cv12AsyncPromiseC1ERKS0_","__ZN2cv15ImageCollection4initERKNSt3__112basic_stringIcNS1_11char_traitsIcEENS1_9allocatorIcEEEEi","__ZN2cv3dnn14dnn4_v2025061910AccumLayer6createERKNS1_11LayerParamsE","__ZN2cv9Feature2D6detectERKNS_11_InputArrayERNSt3__16vectorINS_8KeyPointENS4_9allocatorIS6_EEEES3_","__ZN2cv12VideoCapture4openEii","__ZNK2cv4UMat6copyToERKNS_12_OutputArrayERKNS_11_InputArrayE","__ZN2cv3ocl22OpenCLExecutionContext10getCurrentEv","_cvGetElemType","__ZTv0_n72_NK2cv18SimpleBlobDetector14getDefaultNameEv","_cv_GFTTDetector_getK","_cv_StereoSGBM_getNumDisparities","_cv_fisheye_solvePnP","_cvBoundingRect","__ZN2cv16AVIReadContainer9parseStrlEcNS_6CodecsE","__ZNK2cv9softfloatltERKS0_","__ZN2cv6detail8tracking17TrackerSamplerCSCC2ERKNS2_6ParamsE","__ZN2cv13wechat_qrcode12WeChatQRCode4Impl6decodeERKNS_3MatERKNSt3__16vectorIS3_NS6_9allocatorIS3_EEEERSA_","__ZN2cv6detail17check_failed_autoENS_5Size_IiEES2_RKNS0_12CheckContextE","__ZNK2cv3ocl6Device15image3DMaxDepthEv","__ZN2cv22SparseMatConstIteratorC2EPKNS_9SparseMatE","_cv_ximgproc_EdgeBoxes_getMaxBoxes","_std_VecKeyPoint_clear","_std_VecPoint_new_2","__ZN2cv11SVBackSubstERKNS_11_InputArrayES2_S2_S2_RKNS_12_OutputArrayE","__ZN2cv15checkChessboardERKNS_11_InputArrayENS_5Size_IiEE","__ZN2cv3logERKNS_11_InputArrayERKNS_12_OutputArrayE","_cvRemoveNodeFromTree","_std_VecVecChar_data","_cv_AgastFeatureDetector_empty","_cv_SIFT_getSigma","__ZN2cv3expERKNS_9softfloatE","__ZN2cv3ipp14getIppFeaturesEv","__ZN2cv3hal8filter2DEiiiPhmS1_miiiiiiS1_miiiidib","__ZN2cv3dnn14dnn4_v2025061916PoolingLayerInt86createERKNS1_11LayerParamsE","__ZNK2cv6detail8tracking18TrackerTargetState14getTargetWidthEv","__ZN2cv5utils2fs9canonicalERKNSt3__112basic_stringIcNS2_11char_traitsIcEENS2_9allocatorIcEEEE","__ZN2cv6detail20check_failed_MatTypeEiiRKNS0_12CheckContextE","__ZN2cvgeEdRKNS_3MatE","_cv_ORB_setFirstLevel","_cvReleaseVideoWriter","_cvScalarToRawData","_cv_drawContours","_cv_StereoBM_getNumDisparities","_cv_rotate","_WebPDecodeRGBAInto","__ZN2cv12GFTTDetector6createEiddiibd","__ZN2cv18getAffineTransformEPKNS_6Point_IfEES3_","__ZN2cv5utils2fs13glob_relativeERKNSt3__112basic_stringIcNS2_11char_traitsIcEENS2_9allocatorIcEEEESA_RNS2_6vectorIS8_NS6_IS8_EEEEbb","__ZN2cv3dnn14dnn4_v2025061912PermuteLayer6createERKNS1_11LayerParamsE","__ZN2cv3hal6exp64fEPKdPdi","_cv_SIFT_getNFeatures","_cvCheckHardwareSupport","__ZN2cv18accumulateWeightedERKNS_11_InputArrayERKNS_17_InputOutputArrayEdS2_","_cv_aruco_detectorParameters_get_minMarkerDistanceRate","__ZN2cv6detail18PairwiseSeamFinder3runEv","_std_VecI16_clone","_cv_aruco_drawDetectedMarkers","__ZN2cv12VideoCaptureC1ERKNSt3__112basic_stringIcNS1_11char_traitsIcEENS1_9allocatorIcEEEEi","__ZN2cv3MatD2Ev","__ZN2cv3Mat3eyeENS_5Size_IiEEi","__ZN2cv3dnn14dnn4_v202506193Net4Impl25getLayerShapesRecursivelyEiRNSt3__13mapIiNS1_6detail11LayerShapesENS4_4lessIiEENS4_9allocatorINS4_4pairIKiS7_EEEEEE","_std_VecF32_new_2","__ZN2cv5flann11IndexParams12setAlgorithmEi","__ZN2cv9ExceptionC1Ev","_cvCreateSeqBlock","_cv_filterHomographyDecompByVisibleRefpoints","__ZN2cv7quality11QualityGMSD7computeERKNS_11_InputArrayES4_RKNS_12_OutputArrayE","_cv_AKAZE_getThreshold","_cv_StereoBM_setROI1","_std_VecChar_shrink_to_fit","_WebPCopyPixels","_std_VecVecChar_length","__ZN2cv3dnn14dnn4_v202506198NotLayer6createERKNS1_11LayerParamsE","_std_VecU16_data","_WebPSafeMalloc","__ZNK2cv14DefaultDeleterI5CvMatEclEPS1_","_cvFitEllipse2","_cv_aruco_detectorParameters_get_aprilTagQuadSigma","__ZN2cv3dnn14dnn4_v2025061918readTensorFromONNXERKNSt3__112basic_stringIcNS2_11char_traitsIcEENS2_9allocatorIcEEEE","__ZN2cv5aruco13ArucoDetector4readERKNS_8FileNodeE","_cv_remap","_std_VecPoint3i_get_p","__ZN2cv3ocl7ProgramaSERKS1_","__ZN2cv18illuminationChangeERKNS_11_InputArrayES2_RKNS_12_OutputArrayEff","__ZN2cv3dnn14dnn4_v202506193Net4Impl14registerOutputERKNSt3__112basic_stringIcNS4_11char_traitsIcEENS4_9allocatorIcEEEEii","__ZN2cv8img_hash13blockMeanHashERKNS_11_InputArrayERKNS_12_OutputArrayEi","__ZN2cv7fisheye15undistortPointsERKNS_11_InputArrayERKNS_12_OutputArrayES3_S3_S3_S3_NS_12TermCriteriaE","_cvGetHuMoments","__ZNK2cv3ocl6Kernel5emptyEv","__ZN2cv6ScharrERKNS_11_InputArrayERKNS_12_OutputArrayEiiiddi","__ZN2cv9SparseMatD2Ev","_cv_AKAZE_create_1","_cv_Mat_get_u16_3","_cv_Stitcher_get_panoConfidenceThresh","_cv_drawChessboardCorners","__ZN2cv3hal5max8uEPKhmS2_mPhmiiPv","_cvInitLineIterator","_cvCheckContourConvexity","__ZN2cv3hal6div16uEPKtmS2_mPtmiiPv","__ZN2cv3dnn14dnn4_v202506193Net20setPreferableBackendEi","_WebPDemuxReleaseChunkIterator","__ZNK2cv3ocl6Device22globalMemCacheLineSizeEv","__ZN2cv17AVIWriteContainer13initContainerERKNSt3__112basic_stringIcNS1_11char_traitsIcEENS1_9allocatorIcEEEEdNS_5Size_IiEEb","__ZN2cv3dnn14dnn4_v202506193Net19setPreferableTargetEi","__ZNK2cv3dnn14dnn4_v202506193Net13getLayerTypesERNSt3__16vectorINS3_12basic_stringIcNS3_11char_traitsIcEENS3_9allocatorIcEEEENS8_ISA_EEEE","__ZN2cv17eigenNonSymmetricERKNS_11_InputArrayERKNS_12_OutputArrayES5_","_cv_KalmanFilter_get_transitionMatrix","_cv_Mat_get_Vec2b","_std_VecVecDMatch_reserve","__ZN2cv13getNumThreadsEv","_cv_img_hash_BlockMeanHash_create","_cv_aruco_detectorParameters_get_maxMarkerPerimeterRate","_cv_Mat_op_div_i8","__ZNK2cv3ocl6Device3ptrEv","__ZN2cv3ocl7Context10fromHandleEPv","__ZN2cv3dnn14dnn4_v202506193Net4Impl7forwardERKNSt3__112basic_stringIcNS4_11char_traitsIcEENS4_9allocatorIcEEEE","__ZN2cv5aruco10DictionaryC2Ev","__ZN2cv5aruco12CharucoBoardC1ERKNS_5Size_IiEEffRKNS0_10DictionaryERKNS_11_InputArrayE","__ZN2cv6detail8tracking32TrackerStateEstimatorMILBoosting11prepareDataERKNSt3__16vectorINS3_4pairINS_3PtrINS1_18TrackerTargetStateEEEfEENS3_9allocatorIS9_EEEERNS_3MatESG_","_cv_QRCodeDetector_detectAndDecodeCurved","__ZN2cv11RNG_MT19937C2Ej","_cvCreateMatND","__ZN2cv3ocl6Kernel3runEiPmS2_bRKNS0_5QueueE","__ZN2cv3hal14addWeighted32fEPKfmS2_mPfmiiPv","__ZN2cv11writeScalarERNS_11FileStorageEx","_cv_img_hash_marrHildrethHash_compare","__ZN2cv15warpPerspectiveERKNS_11_InputArrayERKNS_12_OutputArrayES2_NS_5Size_IiEEiiRKNS_7Scalar_IdEE","_std_VecKeyPoint_extend","__ZN2cv6detail8tracking12TrackerModel18setLastTargetStateERKNS_3PtrINS1_18TrackerTargetStateEEE","__ZN2cv8ximgproc2rl21getStructuringElementEiNS_5Size_IiEE","__ZN2cv3dnn14dnn4_v2025061915readNetFromONNXERKNSt3__112basic_stringIcNS2_11char_traitsIcEENS2_9allocatorIcEEEE","__ZN2cv4UMat4diagERKS0_NS_14UMatUsageFlagsE","_cv_mixChannels","_cv_setRNGSeed","__ZN2cv3ocl9KernelArgC2EiPNS_4UMatEiiPKvm","__ZN2cv3hal8recip16uEPKtmS2_mPtmiiPv","__ZN2cv5aruco19generateImageMarkerERKNS0_10DictionaryEiiRKNS_12_OutputArrayEi","_cv_RNG_uniform","__ZN2cv20findContoursLinkRunsERKNS_11_InputArrayERKNS_12_OutputArrayES5_","_cv_UMat_getMat","__ZN2cv5instr8NodeDataC2EPKcS3_iPvbNS0_4TYPEENS0_4IMPLE","__ZN2cv3ocl7ProgramC1ERKNS0_13ProgramSourceERKNSt3__112basic_stringIcNS5_11char_traitsIcEENS5_9allocatorIcEEEERSB_","__ZN2cv3dnn14dnn4_v202506193Net4Impl8getFLOPSEiRKNSt3__16vectorINS5_IiNS4_9allocatorIiEEEENS6_IS8_EEEE","_WebPDecodeBGRInto","_cv_KalmanFilter_get_gain","__ZN2cv15NAryMatIterator4initEPPKNS_3MatEPS1_PPhi","__ZNK2cv8FileNode6isNoneEv","__ZN2cv15calibrateCameraERKNS_11_InputArrayES2_NS_5Size_IiEERKNS_17_InputOutputArrayES7_RKNS_12_OutputArrayESA_SA_SA_SA_iNS_12TermCriteriaE","_cvMinMaxLoc","_std_VecRect2f_push_back","_cvFree_","_cvNorm","_cv_Subdiv2D_symEdge","__ZN2cv3hal5QR64fEPdmiiiS1_mS1_","__ZN2cv6detail26BestOf2NearestRangeMatcher5matchERKNSt3__16vectorINS0_13ImageFeaturesENS2_9allocatorIS4_EEEERNS3_INS0_11MatchesInfoENS5_ISA_EEEERKNS_4UMatE","_cv_SIFT_create_2","__ZNK2cv3ocl12PlatformInfo7versionEv","__ZN2cv17textureFlatteningERKNS_11_InputArrayES2_RKNS_12_OutputArrayEffi","__ZN2cv6detail7Blender7prepareENS_5Rect_IiEE","__ZN2cv8FileNodeC1ERKS0_","__ZN2cv5aruco10Dictionary15writeDictionaryERNS_11FileStorageERKNSt3__112basic_stringIcNS4_11char_traitsIcEENS4_9allocatorIcEEEE","_cv_aruco_detectorParameters_create","_cv_Stitcher_get_waveCorrectKind","__ZN2cv19findContours_legacyERKNS_11_InputArrayERKNS_12_OutputArrayES5_iiNS_6Point_IiEE","__ZN2cv17AVIWriteContainer13putStreamByteEi","_cvSeqPartition","__ZN2cv5flann11IndexParamsC2Ev","__ZN2cv8internal15NormalizePixelsERKNS_3MatERKNS0_15IntrinsicParamsE","_cvSetAdd","__ZN2cv5utils7logging11setLogLevelENS1_8LogLevelE","_cvCreatePyramid","__ZNK2cv3ocl6Device4typeEv","_cv_UMat_inv","__ZNK2cv5AKAZE14getDefaultNameEv","__ZNK2cv5aruco13ArucoDetector22detectMarkersMultiDictERKNS_11_InputArrayERKNS_12_OutputArrayES7_S7_S7_","_cv_Mat_set_f64_2","__ZN2cv7TrackerC2Ev","__ZNK2cv8FileNode3endEv","_cv_aruco_detectorParameters_set_aprilTagMaxNmaxima","_cvFindGraphEdgeByPtr","_std_VecUChar_resize","__ZN2cv11FileStorage4Impl13Base64Decoder8readMoreEi","__ZN2cv4normERKNS_9SparseMatEi","__ZN2cv23calibrationMatrixValuesERKNS_11_InputArrayENS_5Size_IiEEddRdS5_S5_RNS_6Point_IdEES5_","__ZNK2cv3dnn14dnn4_v202506193Net20getMemoryConsumptionERKNSt3__16vectorINS4_IiNS3_9allocatorIiEEEENS5_IS7_EEEERS7_RNS4_ImNS5_ImEEEESF_","__ZN2cv5flann5IndexC2Ev","__ZN2cv11FileStorage4ImplD0Ev","__ZNK2cv12_OutputArray6assignERKNSt3__16vectorINS_4UMatENS1_9allocatorIS3_EEEE","__ZNK2cv9SparseMat4hashEPKi","__ZN2cv5utils10BufferAreaD1Ev","__ZN2cv3minERKNS_3MatEd","_cvFillPoly","_cv_Mat_set_Vec3w","__ZN2cv7quality11QualityGMSD9_mat_data7computeERKS2_S4_","__ZN2cv19QRCodeDetectorArucoC1Ev","__ZN2cv3ocl8PlatformC1Ev","_std_VecI32_resize","__ZN2cv3ocl6KernelC1EOS1_","__ZN2cv8Subdiv2D6spliceEii","_cv_circle_1","_cv_getPerspectiveTransform","_cv_ximgproc_StructuredEdgeDetection_create_1","_cvMerge","_cv_quality_QualityPSNR_getMaxPixelValue","__ZNK2cv9softfloatleERKS0_","__ZN2cv6detail8tracking17TrackerSamplerCSCD2Ev","_std_VecI32_new","__ZN2cv9solvePolyERKNS_11_InputArrayERKNS_12_OutputArrayEi","_cv_dnn_Net_readNetFromCaffeBytes","__ZNK2cv10softdoubleneERKS0_","__ZN2cv19goodFeaturesToTrackERKNS_11_InputArrayERKNS_12_OutputArrayEiddS2_ibd","_cvGetNumThreads","_cv_KalmanFilter_set_controlMatrix","_cv_warpPerspective","__ZN2cv3dnn14dnn4_v2025061916EltwiseLayerInt86createERKNS1_11LayerParamsE","_std_VecVecPoint3i_new_2","__ZN2cv6detail18GraphCutSeamFinderC2ENSt3__112basic_stringIcNS2_11char_traitsIcEENS2_9allocatorIcEEEEff","_cv_ORB_getFirstLevel","_cv_Mat_close","__ZNK2cv11RotatedRect12boundingRectEv","_cv_reduce","__ZN2cv3hal10normL2Sqr_EPKfS2_i","__ZTv0_n48_N2cv9Feature2D4readERKNS_8FileNodeE","__ZN2cv3MatC1ERKS0_PKNS_5RangeE","__ZN2cv8clipLineENS_5Size_IiEERNS_6Point_IiEES4_","_cv_VideoCapture_getBackendName","__ZN2cv3ocl13ProgramSourceC1ERKS1_","__ZN2cv3dnn14dnn4_v2025061920ConvolutionLayerInt86createERKNS1_11LayerParamsE","__ZN2cv16AVIReadContainer10printErrorERNS_8RiffListEj","__ZNK2cv3ocl12PlatformInfo6vendorEv","_cvSetIdentity","_cv_QRCodeDetector_setUseAlignmentMarkers","__ZN2cv3hal6sub32fEPKfmS2_mPfmiiPv","__ZN2cv3dnn14dnn4_v202506193Net14registerOutputERKNSt3__112basic_stringIcNS3_11char_traitsIcEENS3_9allocatorIcEEEEii","__ZN2cv6detail8tracking12TrackerModel25clearCurrentConfidenceMapEv","__ZNK2cv6detail20BundleAdjusterAffine25obtainRefinedCameraParamsERNSt3__16vectorINS0_12CameraParamsENS2_9allocatorIS4_EEEE","__ZN2cv8img_hash16MarrHildrethHash6createEff","_cv_UMat_elemSize1","__ZN2cv8UMatDataD2Ev","_cv_ximgproc_EdgeBoxes_setMaxAspectRatio","_cv_QRCodeDetector_decode","__ZN2cv5aruco10Dictionary19getBitsFromByteListERKNS_3MatEi","__ZNK2cv11FileStorage4Impl10getNodePtrEmm","_cv_logPolar","__ZN2cv19getBuildInformationEv","__ZNK2cv5aruco5Board13generateImageENS_5Size_IiEERKNS_12_OutputArrayEii","_cv_Subdiv2D_edgeDst","__ZNK2cv21GraphicalCodeDetector11detectMultiERKNS_11_InputArrayERKNS_12_OutputArrayE","_std_VecPoint3f_extend","__ZN2cv6detail17check_failed_autoENS_5Size_IiEERKNS0_12CheckContextE","_cv_BRISK_getPatternScale","__ZN2cv5instr8getTraceEv","_cv_dnn_Net_setPreferableBackend","__ZN2cv19createHanningWindowERKNS_12_OutputArrayENS_5Size_IiEEi","__ZN2cv3ocl7ContextC1ERKS1_","__ZN2cv16videoio_registry29getCameraBackendPluginVersionENS_16VideoCaptureAPIsERiS2_","__ZN2cv16TLSDataContainer10detachDataERNSt3__16vectorIPvNS1_9allocatorIS3_EEEE","_cv_drawMatches","_cv_VideoCapture_get","__ZN2cv6detail12AffineWarper9buildMapsENS_5Size_IiEERKNS_11_InputArrayES6_RKNS_12_OutputArrayES9_","__ZNK2cv3ocl6Device16maxWorkGroupSizeEv","__ZN2cv3ocl12PlatformInfoD2Ev","_std_VecVecPoint3f_extend","__ZN2cv3dnn14dnn4_v2025061911RegionLayer6createERKNS1_11LayerParamsE","_cv_ORB_setScoreType","__ZN2cv8LMSolver6createERKNS_3PtrINS0_8CallbackEEEid","__ZNK2cv6detail8tracking17TrackerFeatureSet12getResponsesEv","__ZN2cv3ocl7Image2D14canCreateAliasERKNS_4UMatE","__ZN2cv6detail11waveCorrectERNSt3__16vectorINS_3MatENS1_9allocatorIS3_EEEENS0_15WaveCorrectKindE","__ZNK2cv3ocl6Device12localMemTypeEv","_WebPDecodeRGBInto","__ZNK2cv11_InputArray4kindEv","_WebPAnimDecoderReset","_cv_insertChannel","__ZN2cv5randnERKNS_17_InputOutputArrayERKNS_11_InputArrayES5_","__ZN2cv5utils2fs8FileLock11lock_sharedEv","__ZN2cv12VideoCapturersERNS_4UMatE","__ZN2cv16estimateAffine2DERKNS_11_InputArrayES2_RKNS_12_OutputArrayEidmdm","__ZN2cv6detail25autoDetectWaveCorrectKindERKNSt3__16vectorINS_3MatENS1_9allocatorIS3_EEEE","_std_VecDMatch_reserve","_std_VecChar_new","__ZN2cv5utils29getConfigurationParameterBoolEPKcb","__ZN2cv7fisheye13distortPointsERKNS_11_InputArrayERKNS_12_OutputArrayES3_S3_S3_d","__ZN2cv20getRotationMatrix2D_ENS_6Point_IfEEdd","__ZN2cv3hal6sub32sEPKimS2_mPimiiPv","_std_VecI32_reserve","__ZN2cv6detail8tracking11ClfMilBoost6updateERKNS_3MatES5_","_std_VecPoint3f_reserve","__ZN2cv14PCABackProjectERKNS_11_InputArrayES2_S2_RKNS_12_OutputArrayE","__ZN2cv24convertPointsHomogeneousERKNS_11_InputArrayERKNS_12_OutputArrayE","_cv_MSER_detectRegions","__ZN2cv11colorChangeERKNS_11_InputArrayES2_RKNS_12_OutputArrayEfff","_cvBoxPoints","_std_VecMat_free","_cvGraphAddEdgeByPtr","_cvEqualizeHist","__ZN2cv5utils2fs4joinERKNSt3__112basic_stringIcNS2_11char_traitsIcEENS2_9allocatorIcEEEESA_","_std_VecRect2f_get","_cv_KalmanFilter_get_statePost","__ZN2cv3ocl6KernelC1EPKcRKNS0_7ProgramE","__ZN2cv9Feature2D6detectERKNS_11_InputArrayERNSt3__16vectorINS5_INS_8KeyPointENS4_9allocatorIS6_EEEENS7_IS9_EEEES3_","_std_VecPoint3i_extend","__ZNK2cv9softfloatmlERKS0_","_std_VecMat_set","__ZN2cv3dnn14dnn4_v2025061914HardSwishLayer6createERKNS1_11LayerParamsE","_WebPGetInfo","__ZNK2cv10softdoubleleERKS0_","__ZN2cv5utils5trace7details6Region7destroyEv","_std_VecF16_new_1","__ZN2cvanERKNS_3MatERKNS_7Scalar_IdEE","__ZNK2cv6detail15GainCompensator5gainsEv","__ZNK2cv16MatConstIterator3posEPi","_cv_moments","_cv_flipND","_std_VecVec4f_free","__ZNK2cv3ocl5Queue17getProfilingQueueEv","__ZN2cv11FileStorage4Impl4initEv","__ZN2cv3ocl16convertFromImageEPvRNS_4UMatE","_cv_AKAZE_create","__ZN2cv6detail12DpSeamFinder14closeToContourEiiRKNS_4Mat_IhEE","__ZN2cv3dnn14dnn4_v202506199LSTMLayer6createERKNS1_11LayerParamsE","_cv_ximgproc_EdgeBoxes_getBeta","__ZN2cv3dnn14dnn4_v2025061914writeTextGraphERKNSt3__112basic_stringIcNS2_11char_traitsIcEENS2_9allocatorIcEEEESA_","__ZN2cv3hal8recip32fEPKfmS2_mPfmiiPv","__ZN2cv15calcBackProjectERKNS_11_InputArrayERKNSt3__16vectorIiNS3_9allocatorIiEEEES2_RKNS_12_OutputArrayERKNS4_IfNS5_IfEEEEd","__ZN2cv8ximgproc20edgePreservingFilterERKNS_11_InputArrayERKNS_12_OutputArrayEid","_VP8CheckSignature","_cv_dnn_Net_close","__ZN2cv15isContourConvexERKNS_11_InputArrayE","__ZN2cv3dnn14dnn4_v202506199LSTMLayer16inputNameToIndexENSt3__112basic_stringIcNS3_11char_traitsIcEENS3_9allocatorIcEEEE","__ZNK2cv8FileNode4keysEv","__ZN2cv3ocl11haveAmdBlasEv","__ZN2cv3ocl9KernelArgC2Ev","__ZN2cv7vconcatERKNS_11_InputArrayES2_RKNS_12_OutputArrayE","_cvSetHistBinRanges","__ZN2cv16estimateAffine3DERKNS_11_InputArrayES2_Pdb","__ZNK2cv3ocl6Device15maxConstantArgsEv","_cv_Mat_release","_WebPMuxDeleteChunk","__ZN2cv4cbrtERKNS_9softfloatE","_cvDet","_std_VecPoint2f_new_2","__ZNK2cv3Mat3dotERKNS_11_InputArrayE","__ZN2cv3dnn14dnn4_v2025061912SigmoidLayer6createERKNS1_11LayerParamsE","__ZNK2cv3dnn14dnn4_v202506193Net20getMemoryConsumptionERKNSt3__16vectorINS4_IiNS3_9allocatorIiEEEENS5_IS7_EEEERmSC_","_std_VecMat_extend","_cvCreateMatNDHeader","__ZN2cv5utils5trace7details6Region4Impl11enterRegionERNS2_23TraceManagerThreadLocalE","_cv_ORB_getEdgeThreshold","__ZNK2cv3ocl7Context6deviceEm","__ZN2cv15setUseOptimizedEb","__ZN2cv3Mat13reserveBufferEm","__ZN2cv6detail12DisjointSets17createOneElemSetsEi","__ZN2cv8integralERKNS_11_InputArrayERKNS_12_OutputArrayEi","_cvSeqInsert","_cv_AKAZE_empty","__ZN2cv16PyRotationWarperC2ENSt3__112basic_stringIcNS1_11char_traitsIcEENS1_9allocatorIcEEEEf","_WebPAnimEncoderOptionsInitInternal","_cv_KalmanFilter_get_temp2","_cv_aruco_arucoDetector_detectMarkers","_cv_borderInterpolate","__ZN2cv3hal12magnitude64fEPKdS2_Pdi","__ZN2cv3ocl12PlatformInfoC1Ev","__ZNK2cv14DefaultDeleterI7CvMatNDEclEPS1_","__ZNK2cv2ml9StatModel9calcErrorERKNS_3PtrINS0_9TrainDataEEEbRKNS_12_OutputArrayE","__ZN2cv5AGASTERKNS_11_InputArrayERNSt3__16vectorINS_8KeyPointENS3_9allocatorIS5_EEEEib","_cv_UMat_size","__ZN2cv12VideoCapture8retrieveERKNS_12_OutputArrayEi","__ZNK2cv3Mat7reshapeEii","_cvFitLine","__ZN2cv7fisheye15stereoCalibrateERKNS_11_InputArrayES3_S3_RKNS_17_InputOutputArrayES6_S6_S6_NS_5Size_IiEERKNS_12_OutputArrayESB_SB_SB_iNS_12TermCriteriaE","__ZN2cv3dnn14dnn4_v202506195LayerC1ERKNS1_11LayerParamsE","__ZN2cv5flann5IndexC1ERKNS_11_InputArrayERKNS0_11IndexParamsEN7cvflann16flann_distance_tE","__ZN2cv3Mat7releaseEv","__ZN2cv11FileStorage4Impl13Base64Decoder8getInt32Ev","__ZN2cv8ximgproc11EdgeDrawing9setParamsERKNS1_6ParamsE","__ZN2cv5flann11IndexParams7setBoolERKNSt3__112basic_stringIcNS2_11char_traitsIcEENS2_9allocatorIcEEEEb","__ZN2cv15ImageCollection8iteratorptEv","_cv_SIFT_setNOctaveLayers","_cvCalcProbDensity","_std_VecVec6f_resize","_cv_solvePnPRefineVVS","_std_VecPoint3i_free","__ZNK2cv18SimpleBlobDetector15getBlobContoursEv","__ZN2cv6detail8tracking17TrackerSamplerCSC8samplingERKNS_3MatERKNS_5Rect_IiEERNSt3__16vectorIS3_NSA_9allocatorIS3_EEEE","__ZN2cv11FileStorage4Impl4putsEPKc","__ZN2cv8img_hash11ImgHashBaseD1Ev","__ZNK2cv4UMat7reshapeEiiPKi","__ZN2cv5flann11IndexParamsD2Ev","_cv_AKAZE_getDiffusivity","_cv_Mat_op_mul_i32","_cv_Mat_set_Vec4s","_cv_Mat_op_add_i16","_cv_SIFT_getEdgeThreshold","__ZN2cv3PCAC1Ev","__ZN2cv15ImageCollection4Impl12releaseCacheEi","_std_VecU32_new_2","__ZNK2cv3PCA7projectERKNS_11_InputArrayERKNS_12_OutputArrayE","_cv_Mat_op_sub_u16","_std_VecI32_new_1","__ZNK2cv6detail8tracking18TrackerTargetState17getTargetPositionEv","_std_VecRotatedRect_shrink_to_fit","_cv_dnn_Net_forwardLayers","_cv_drawFrameAxes","__ZN2cv5utils5trace7details12TraceManagerC1Ev","__ZN2cvdvERKNS_3MatEd","_std_VecU64_get","__ZNK2cv3Mat5crossERKNS_11_InputArrayE","__ZN2cv3dnn14dnn4_v202506193Net4Impl12enableFusionEb","__ZN2cv4UMat6createEiPKiiNS_14UMatUsageFlagsE","__ZN2cv13mulTransposedERKNS_11_InputArrayERKNS_12_OutputArrayEbS2_di","_cvSetZero","_cv_calcBackProject","__ZN2cv17borderInterpolateEiii","_cv_dnn_Net_dump","__ZN2cv15sampsonDistanceERKNS_11_InputArrayES2_S2_","__ZN2cv3ocl12PlatformInfoC2Ev","_cvCopy","__ZNK2cv3dnn14dnn4_v202506193Net20getMemoryConsumptionEiRKNSt3__16vectorIiNS3_9allocatorIiEEEERmSA_","_std_VecU32_clone","_cvRectangleR","__ZN2cv23getDefaultAlgorithmHintEv","__ZN2cvneERKNS_16FileNodeIteratorES2_","__ZNK2cv17DescriptorMatcher5emptyEv","__ZN2cv3ocl6Device10getDefaultEv","_cv_QRCodeDetector_setEpsX","__ZN2cv3dnn14dnn4_v2025061913FlowWarpLayer6createERKNS1_11LayerParamsE","__ZN2cv5instr8NodeDataC2ERS1_","_cv_fisheye_initUndistortRectifyMap","__ZN2cv3ocl14memopTypeToStrEi","__ZN2cv3ocl6DeviceC2Ev","__ZN2cv5aruco13ArucoDetector21setDetectorParametersERKNS0_18DetectorParametersE","_cv_randu","__ZN2cv6detail19ExposureCompensator13createDefaultEi","_WebPDemuxNextFrame","__ZNK2cv9softfloatdvERKS0_","__ZN2cv3hal6cmp16uEPKtmS2_mPhmiiPv","__ZN2cv14solvePnPRansacERKNS_11_InputArrayES2_S2_S2_RKNS_12_OutputArrayES5_bifdS5_i","_cv_FastFeatureDetector_getType","_WebPMuxSetCanvasSize","__ZNK2cv3dnn14dnn4_v202506193Net4Impl12getLayerNameEi","__ZN2cv3Mat7reserveEm","_cv_quality_QualityGMSD_compute_static","_cvSub","_cv_FaceDetectorYN_getTopK","__ZN2cv9softfloatC2Ei","_cv_aruco_detectorParameters_get_minDistanceToBorder","_std_VecU64_data","_cvMinAreaRect2","__ZN2cv17DescriptorMatcher20DescriptorCollection5clearEv","__ZN2cv12VideoCapture4readERKNS_12_OutputArrayE","__ZN2cv12findContoursERKNS_11_InputArrayERKNS_12_OutputArrayES5_iiNS_6Point_IiEE","__ZN2cv18findFundamentalMatERKNS_11_InputArrayES2_iddRKNS_12_OutputArrayE","__ZN2cv20getValidDisparityROIENS_5Rect_IiEES1_iii","_cv_RotatedRect_points","__ZN2cv2ml9TrainDataD2Ev","__ZN2cv3ocl7Context10fromDeviceERKNS0_6DeviceE","_std_VecPoint3f_shrink_to_fit","__ZNK2cv9Algorithm5writeERKNS_3PtrINS_11FileStorageEEERKNSt3__112basic_stringIcNS6_11char_traitsIcEENS6_9allocatorIcEEEE","__ZNK2cv5MatOp8subtractERKNS_7Scalar_IdEERKNS_7MatExprERS5_","__ZN2cv5utils25addDataSearchSubDirectoryERKNSt3__112basic_stringIcNS1_11char_traitsIcEENS1_9allocatorIcEEEE","_cv_StereoSGBM_getP2","_cv_Subdiv2D_edgeOrg","_cv_aruco_detectorParameters_set_errorCorrectionRate","_std_VecI8_length","__ZN2cv8img_hash5pHashERKNS_11_InputArrayERKNS_12_OutputArrayE","__ZN2cv2ml9TrainData11loadFromCSVERKNSt3__112basic_stringIcNS2_11char_traitsIcEENS2_9allocatorIcEEEEiiiSA_cc","__ZN2cv5utils10BufferAreaD2Ev","__ZN2cv9SparseMatD1Ev","__ZN2cv11matchShapesERKNS_11_InputArrayES2_id","__ZN2cv28rotatedRectangleIntersectionERKNS_11RotatedRectES2_RKNS_12_OutputArrayE","_cvMaxRect","_cv_StereoBM_setMinDisparity","_cv_accumulatedWeighted_1","__ZN2cv3MatC1EiPKii","_cv_quality_QualityGMSD_create","_WebPMuxSetAnimationParams","__ZN2cv12ellipse2PolyENS_6Point_IdEENS_5Size_IdEEiiiiRNSt3__16vectorIS1_NS4_9allocatorIS1_EEEE","__ZN2cv6reduceERKNS_11_InputArrayERKNS_12_OutputArrayEiii","__ZNK2cv5MatOp11elementWiseERKNS_7MatExprE","_cv_ximgproc_StructuredEdgeDetection_edgesNms","__ZN2cv7sortIdxERKNS_11_InputArrayERKNS_12_OutputArrayEi","_cv_log","__ZN9CvLevMarq9updateAltERPK5CvMatRPS0_S5_RPd","__ZN2cv3dnn14dnn4_v202506199SinhLayer6createERKNS1_11LayerParamsE","__ZN2cv8img_hash5PHash6createEv","__ZNK2cv3ocl6Device16maxParameterSizeEv","_cv_Mat_set_Vec2d","_cvSetNumThreads","_cvInRangeS","_cv_KalmanFilter_create","__ZN2cv7TrackerD2Ev","_cv_Mat_toVecPoint","_std_VecF16_new","__ZN2cv9transposeERKNS_11_InputArrayERKNS_12_OutputArrayE","_std_VecVec4i_free","__ZN2cv12pencilSketchERKNS_11_InputArrayERKNS_12_OutputArrayES5_fff","_cv_aruco_detectorParameters_set_cornerRefinementMaxIterations","_cv_KalmanFilter_init","_cv_Stitcher_set_interpolationFlags","__ZN2cv11FileStorage4ImplC1EPS0_","_cv_fisheye_projectPoints","_cv_Mat_closeVoid","_std_VecVecChar_new_2","__ZNK2cv11RotatedRect6pointsERNSt3__16vectorINS_6Point_IfEENS1_9allocatorIS4_EEEE","__ZN2cv3MatC2ENS_5Size_IiEEiPvm","__ZN2cv6detail15createWeightMapERKNS_11_InputArrayEfRKNS_17_InputOutputArrayE","__ZN2cv22getInitializationMutexEv","__ZN2cv16TLSDataContainerD0Ev","__ZNK2cv9softfloateqERKS0_","__ZN2cv3absERKNS_3MatE","__ZN2cv6detail19ChannelsCompensator4feedERKNSt3__16vectorINS_6Point_IiEENS2_9allocatorIS5_EEEERKNS3_INS_4UMatENS6_ISB_EEEERKNS3_INS2_4pairISB_hEENS6_ISH_EEEE","_cv_KalmanFilter_set_errorCovPre","__ZN2cv3ocl13ProgramSourceC2EOS1_","__ZN2cv3dnn14dnn4_v202506195Layer13setParamsFromERKNS1_11LayerParamsE","_cvThreshold","_cv_StereoSGBM_getBlockSize","_getLogCallbackEx","_cv_Mat_op_add_f64","_cvMatchTemplate","_cv_UMat_create_diag","__ZNK2cv7HammingclEPKhS2_i","__ZN2cv9SparseMat5clearEv","_cv_matchTemplate","__ZN2cv3ocl22OpenCLExecutionContext12setUseOpenCLEb","__ZN2cv8UMatDataC2EPKNS_12MatAllocatorE","_cv_projectPoints","__ZNK2cv22SimpleBlobDetectorImpl5writeERNS_11FileStorageE","__ZN2cv5aruco13ArucoDetectorC2ERKNS0_10DictionaryERKNS0_18DetectorParametersERKNS0_16RefineParametersE","__ZN2cv11convertFp16ERKNS_11_InputArrayERKNS_12_OutputArrayE","_cv_StereoBM_setSmallerBlockSize","__ZN2cv9polylinesERKNS_17_InputOutputArrayERKNS_11_InputArrayEbRKNS_7Scalar_IdEEiii","__ZN2cv3hal11Cholesky32fEPfmiS1_mi","__ZN2cv20undistortImagePointsERKNS_11_InputArrayERKNS_12_OutputArrayES2_S2_NS_12TermCriteriaE","__ZN2cv11RotatedRectC1ERKNS_6Point_IfEES4_S4_","__ZN2cv6repeatERKNS_3MatEii","__ZNK2cv8Subdiv2D7getEdgeEii","__ZNK2cv9softfloatplERKS0_","_cv_StereoSGBM_getDisp12MaxDiff","__ZN2cv6detail8tracking11ClfMilBoost8classifyERKNS_3MatEb","_cv_Stitcher_composePanorama","_std_VecI64_data","__ZN2cv6detail18GraphCutSeamFinderD0Ev","__ZN2cv6detail19ChannelsCompensator5applyEiNS_6Point_IiEERKNS_17_InputOutputArrayERKNS_11_InputArrayE","_std_VecMat_reserve","__ZNK2cv3LDA4saveERNS_11FileStorageE","__ZN2cv11mixChannelsEPKNS_3MatEmPS0_mPKim","__ZN2cv7TrackerD1Ev","__ZN2cv11recoverPoseERKNS_11_InputArrayES2_S2_S2_S2_S2_RKNS_12_OutputArrayES5_S5_iddRKNS_17_InputOutputArrayE","_std_VecI32_length","__ZNK2cv3dnn14dnn4_v202506193Net14getLayerShapesERKNSt3__16vectorINS4_IiNS3_9allocatorIiEEEENS5_IS7_EEEEiRS9_SC_","_cvSetIPLAllocators","__ZN2cv11FileStorage4Impl5writeERKNSt3__112basic_stringIcNS2_11char_traitsIcEENS2_9allocatorIcEEEEi","__ZN2cv12AsyncPromiseD1Ev","__ZN2cv8Subdiv2D9swapEdgesEi","_cv_aruco_detectorParameters_get_maxErroneousBitsInBorderRate","_cv_ximgproc_thinning","__ZNK2cv3ocl12PlatformInfo4nameEv","_cv_Stitcher_component","_cv_SVBackSubst","_cv_BRISK_empty","__ZN2cv5aruco10DictionaryC2ERKNS_3MatEii","__ZN2cv9warpPolarERKNS_11_InputArrayERKNS_12_OutputArrayENS_5Size_IiEENS_6Point_IfEEdi","__ZN2cv22getAllocatorStatisticsEv","_std_VecVec4f_push_back","_cv_KalmanFilter_close","_cv_correctMatches","__ZN2cv3hal5LU32fEPfmiS1_mi","__ZN2cv5writeERNS_11FileStorageERKNSt3__112basic_stringIcNS2_11char_traitsIcEENS2_9allocatorIcEEEEf","_cv_FaceDetectorYN_getScoreThreshold","_cv_dnn_Net_create","__ZN2cv3dnn14dnn4_v202506193Net22readFromModelOptimizerEPKhmS4_m","__ZN2cv16AVIReadContainer21parseAviWithFrameListERNSt3__15dequeINS1_4pairIyjEENS1_9allocatorIS4_EEEENS_6CodecsE","_std_VecPoint3f_length","_cv_convexHull","__ZN2cv9FormatterD1Ev","_cvApproxChains","__ZN2cv4UMat5setToERKNS_11_InputArrayES3_","__ZN2cv3ocl13ProgramSourceD2Ev","__ZN2cv4blurERKNS_11_InputArrayERKNS_12_OutputArrayENS_5Size_IiEENS_6Point_IiEEi","__ZNK2cv8Subdiv2D18getLeadingEdgeListERNSt3__16vectorIiNS1_9allocatorIiEEEE","_cv_integral","__ZN2cv17DescriptorMatcher20DescriptorCollectionD1Ev","__ZN2cv8cvtColorERKNS_11_InputArrayERKNS_12_OutputArrayEiiNS_13AlgorithmHintE","__ZN2cv13HOGDescriptor24getDefaultPeopleDetectorEv","__ZN2cv9Formatter3getENS0_10FormatTypeE","__ZN2cv3minERKNS_4UMatES2_RS0_","__ZNK2cv3ocl12PlatformInfo12versionMajorEv","_std_VecPoint_new_1","_cvInitSparseMatIterator","__ZN2cv16FileNodeIteratorC2Ev","_cv_intersectConvexConvex","__ZN2cv6detail20BundleAdjusterReproj24setUpInitialCameraParamsERKNSt3__16vectorINS0_12CameraParamsENS2_9allocatorIS4_EEEE","__ZNK2cv3dnn14dnn4_v202506193Net4Impl13getLayerNamesEv","_cv_flann_IndexParams_getAll","__ZN2cv19QRCodeDetectorAruco21setDetectorParametersERKNS0_6ParamsE","__ZN2cv8img_hash18RadialVarianceHash7getHashEv","_cv_Mat_set_Vec3b","__ZN2cv3hal6max64fEPKdmS2_mPdmiiPv","__ZN2cv6detail12AffineWarper20getRTfromHomogeneousERKNS_11_InputArrayERNS_3MatES6_","__ZN2cv5utils5trace7details6Region4ImplC1ERNS2_23TraceManagerThreadLocalEPS3_RS3_RKNS3_21LocationStaticStorageEx","__ZN2cv5aruco13ArucoDetectorC2ERKNSt3__16vectorINS0_10DictionaryENS2_9allocatorIS4_EEEERKNS0_18DetectorParametersERKNS0_16RefineParametersE","_cv_solvePnP","_cvGetCols","_cv_dnn_Net_getLayer","_cv_img_hash_BlockMeanHash_compute","__ZN2cv8img_hash13BlockMeanHash6createEi","_cv_rectangle_1","__ZN2cv16AVIReadContainer5closeEv","__ZN2cv3expERKNS_10softdoubleE","_cv_Mat_set_Vec4w","_cv_transpose","__ZN2cv3ocl23checkOptimalVectorWidthEPKiRKNS_11_InputArrayES5_S5_S5_S5_S5_S5_S5_S5_NS0_17OclVectorStrategyE","__ZN2cv3dnn14dnn4_v2025061918BatchNormLayerInt86createERKNS1_11LayerParamsE","__ZN2cv3dnn14dnn4_v202506199AcosLayer6createERKNS1_11LayerParamsE","__ZN2cv4normERKNS_11_InputArrayEiS2_","__ZNK2cv3ocl6Device21nativeVectorWidthCharEv","__ZNK2cv5aruco9GridBoard15getMarkerLengthEv","_cv_aruco_detectorParameters_set_aprilTagMinClusterPixels","_cv_MSER_getDelta","_cv_RNG_uniformDouble","_cv_aruco_Dictionary_set_maxCorrectionBits","__ZN2cv9seqRemoveEP5CvSeqi","_std_VecKeyPoint_get","__ZN2cv15calcBackProjectEPKNS_3MatEiPKiRKNS_11_InputArrayERKNS_12_OutputArrayEPPKfdb","__ZN2cv4UMatD1Ev","_cv_accumulate_1","_cv_RNG_next","__ZN2cv4readERKNS_8FileNodeERNS_3MatERKS3_","__ZN2cv6divideERKNS_11_InputArrayES2_RKNS_12_OutputArrayEdi","__ZN2cv3maxERKNS_4UMatES2_RS0_","_cv_Stitcher_set_panoConfidenceThresh","_cv_getClosestEllipsePoints","_WebPSafeFree","_cv_ORB_create_1","__ZN2cv4UMatC2EOS0_","__ZNK2cv8Subdiv2D9isRightOfENS_6Point_IfEEi","_std_VecKeyPoint_reserve","_WebPCleanupTransparentArea","__ZN2cv16AVIReadContainerC1Ev","__ZNK2cv3dnn14dnn4_v202506193Net4Impl4dumpEb","__ZTv0_n72_NK2cv5BRISK14getDefaultNameEv","__ZN2cv3hal11cvtYUVtoBGREPKhmPhmiiiibbNS_13AlgorithmHintE","__ZN2cv3hal6min32sEPKimS2_mPimiiPv","__ZN2cv6detail21BestOf2NearestMatcher6createEbfiid","__ZN2cv7seqPushEP5CvSeqPKv","__ZNK2cv13HOGDescriptor6detectERKNS_11_InputArrayERNSt3__16vectorINS_6Point_IiEENS4_9allocatorIS7_EEEERNS5_IdNS8_IdEEEEdNS_5Size_IiEESG_RKSA_","_cvReshapeMatND","_cv_ORB_setFastThreshold","__ZN2cv3ocl7Context7releaseEv","_std_VecRect_data","__ZNK2cv12_OutputArray9getMatRefEi","__ZNK2cv11FileStorage9getFormatEv","_cv_KAZE_getNOctaveLayers","_cv_VideoWriter_fourcc","__ZNK2cv12VideoCapture14getBackendNameEv","_cv_cornerSubPix","_cv_decomposeHomographyMat","__ZNK2cv9SparseMat9convertToERS0_id","_cvCloneSparseMat","_cv_Mat_op_div_i32","__ZNK2cv3ocl12PlatformInfo12versionMinorEv","_cv_fitEllipse","__ZN2cv5flann16SavedIndexParamsC2ERKNSt3__112basic_stringIcNS2_11char_traitsIcEENS2_9allocatorIcEEEE","__ZN2cv3dnn14dnn4_v2025061917readNetFromTFLiteERKNSt3__112basic_stringIcNS2_11char_traitsIcEENS2_9allocatorIcEEEE","__ZN2cv8fillPolyERKNS_17_InputOutputArrayERKNS_11_InputArrayERKNS_7Scalar_IdEEiiNS_6Point_IiEE","__ZN2cv12AsyncPromise7releaseEv","__ZN2cv2ml9TrainData12getSubMatrixERKNS_3MatES4_i","__ZN2cv3ocl7ContextC2EOS1_","__ZN2cv3MatC1ERKS0_RKNS_5RangeES5_","__ZN2cv3RNG8gaussianEd","__ZNK2cv16MatConstIterator3posEv","__ZNK2cv5MatOp6divideERKNS_7MatExprES3_RS1_d","__ZN2cv20findContoursLinkRunsERKNS_11_InputArrayERKNS_12_OutputArrayE","__ZN2cv4flipERKNS_11_InputArrayERKNS_12_OutputArrayEi","__ZNK2cv3ocl6Device18globalMemCacheSizeEv","_cv_dnn_Layer_close","__ZN2cv3dnn14dnn4_v202506195Layer17outputNameToIndexERKNSt3__112basic_stringIcNS3_11char_traitsIcEENS3_9allocatorIcEEEE","_cvGetSeqElem","_cv_VideoWriter_getBackendName","_std_VecPoint3f_clear","_std_VecRect2f_length","__ZNK2cv13HOGDescriptor17checkDetectorSizeEv","_cv_Mat_get_u8_1","__ZN2cv9BFMatcherC2Eib","__ZNK2cv11FileStorage4Impl11bufferStartEv","__ZN2cv9fastAtan2Eff","__ZN2cv8clipLineENS_5Rect_IiEERNS_6Point_IiEES4_","__ZNK2cv3Mat5cloneEv","__ZN2cv23releaseTlsStorageThreadEv","__ZN2cv7quality14QualityBRISQUE7computeERKNS_11_InputArrayERKNSt3__112basic_stringIcNS5_11char_traitsIcEENS5_9allocatorIcEEEESD_","_cv_HOGDescriptor_getDescriptorSize","_cvCopyHist","__ZNK2cv9softfloatrmERKS0_","_std_VecU64_push_back","_cv_Mat_get_f64_1","_cv_ximgproc_rl_threshold","_cv_ellipse","_cvStartReadSeq","_cv_groupRectangles","_cv_findEssentialMat_1","_cv_createMergeMertens","__ZN2cv3dnn14dnn4_v2025061912softNMSBoxesERKNSt3__16vectorINS_5Rect_IiEENS2_9allocatorIS5_EEEERKNS3_IfNS6_IfEEEERSC_ffRNS3_IiNS6_IiEEEEmfNS1_13SoftNMSMethodE","_cvInitNArrayIterator","__ZN2cv8integralERKNS_11_InputArrayERKNS_12_OutputArrayES5_ii","__ZN2cv6detail8tracking32TrackerStateEstimatorMILBoostingD0Ev","__ZN2cv18SimpleBlobDetector6ParamsC2Ev","_cv_aruco_detectorParameters_set_minDistanceToBorder","__ZN2cv12cornerHarrisERKNS_11_InputArrayERKNS_12_OutputArrayEiidi","__ZN2cv17DescriptorMatcher20DescriptorCollectionD0Ev","__ZN2cv5aruco13ArucoDetector15setDictionariesERKNSt3__16vectorINS0_10DictionaryENS2_9allocatorIS4_EEEE","_std_VecU32_length","_cv_AKAZE_setDescriptorChannels","__ZN2cv3hal14cartToPolar64fEPKdS2_PdS3_ib","_cv_StereoBM_setPreFilterCap","_cv_SimpleBlobDetector_getDefaultName","__ZN2cv4SIFT6createEiidddb","__ZN2cv3dnn14dnn4_v202506199BNLLLayer6createERKNS1_11LayerParamsE","_cv_convexityDefects","_std_VecKeyPoint_new_1","__ZN2cv3dnn14dnn4_v202506197readNetERKNSt3__112basic_stringIcNS2_11char_traitsIcEENS2_9allocatorIcEEEESA_SA_","_cv_Mat_get_i32_3","_cv_aruco_detectorParameters_get_perspectiveRemoveIgnoredMarginPerCell","__ZN2cv5aruco23getPredefinedDictionaryEi","__ZNK2cv9SparseMat8assignToERS0_i","__ZNK2cv9softfloatmiERKS0_","__ZN2cv17CascadeClassifier4loadERKNSt3__112basic_stringIcNS1_11char_traitsIcEENS1_9allocatorIcEEEE","_cv_SIFT_getNOctaveLayers","_cv_aruco_Dictionary_getDistanceToId","__ZN2cv3hal14addWeighted32sEPKimS2_mPimiiPv","__ZN2cv16pointPolygonTestERKNS_11_InputArrayENS_6Point_IfEEb","__ZN2cv3Mat9adjustROIEiiii","__ZN2cv3dnn14dnn4_v2025061912PoolingLayer6createERKNS1_11LayerParamsE","__ZN2cv3ocl8PlatformC1ERKS1_","__ZN2cv9softfloatC2Ej","_std_VecI64_push_back","__ZN2cv8integralERKNS_11_InputArrayERKNS_12_OutputArrayES5_S5_ii","__ZN2cv3hal11cvtBGRtoXYZEPKhmPhmiiiib","__ZN2cv3ocl7Image2DD2Ev","_std_VecPoint_set","_cvRandArr","__ZN2cv9SparseMat3ptrEPKibPm","__ZNK2cv4UMat6copyToERKNS_12_OutputArrayE","__ZN2cv3PCAC1ERKNS_11_InputArrayES3_id","__ZN2cv14copyMakeBorderERKNS_11_InputArrayERKNS_12_OutputArrayEiiiiiRKNS_7Scalar_IdEE","_cv_drawContours_1","__ZN2cv7quality11QualitySSIM9_mat_data7computeERKS2_S4_","_cvGetErrInfo","_cv_quality_QualityGMSD_close","_cv_SimpleBlobDetector_create","_cv_Mat_get_Vec2s","_cv_AlignMTB_process","_cv_aruco_detectorParameters_get_minOtsuStdDev","__ZN2cv11FileStorage14endWriteStructEv","_cv_AgastFeatureDetector_close","_std_VecF64_new_2","_WebPNewInternal","_std_VecI64_clear","_std_VecVecPoint_get","__ZN2cv8internal15IntrinsicParamsC1Ev","_std_VecVecDMatch_length_i","__ZN2cv7fisheye8solvePnPERKNS_11_InputArrayES3_S3_S3_RKNS_12_OutputArrayES6_biNS_12TermCriteriaE","_cvRange","__ZNK2cv4MSER14getDefaultNameEv","_cv_KalmanFilter_get_temp1","_cv_StereoBM_close","_cv_Mat_elemSize","__ZN2cv9SparseMat5eraseEiiPm","_cv_fitEllipse2f","__ZN2cv23buildOpticalFlowPyramidERKNS_11_InputArrayERKNS_12_OutputArrayENS_5Size_IiEEibiib","__ZN2cv3dnn14dnn4_v202506198AbsLayer6createERKNS1_11LayerParamsE","__ZN2cv15KeyPointsFilter16removeDuplicatedERNSt3__16vectorINS_8KeyPointENS1_9allocatorIS3_EEEE","_cv_aruco_detectorParameters_get_aprilTagMinWhiteBlackDiff","__ZN2cv6detail17VoronoiSeamFinder10findInPairEmmNS_5Rect_IiEE","_cvCreateMemStorage","_cvMulTransposed","__ZN2cv22SimpleBlobDetectorImplC1ERKNS_18SimpleBlobDetector6ParamsE","_std_VecVecChar_free","__ZNK2cv2ml9StatModel11getVarCountEv","_cvCreateChildMemStorage","__ZN2cv6detail17BundleAdjusterRay9calcErrorERNS_3MatE","_std_VecVecDMatch_new_2","__ZN2cv6detail12DpSeamFinder18hasOnlyOneNeighborEi","_cv_wechat_qrcode_WeChatQRCode_getScaleFactor","_cv_BFMatcher_create","__ZNK2cv3dnn14dnn4_v202506193Net4Impl12getLayerDataEi","__ZN2cv8internal15IntrinsicParamsC2Ev","__ZNK2cv3ocl6Device20nativeVectorWidthIntEv","__ZN2cv11matMulDerivERKNS_11_InputArrayES2_RKNS_12_OutputArrayES5_","__ZN2cv6detail17check_failed_autoEmmRKNS0_12CheckContextE","_cv_Mat_col","_cv_Mat_t","_cv_linearPolar","_cv_imencode","__ZN2cv25computeCorrespondEpilinesERKNS_11_InputArrayEiS2_RKNS_12_OutputArrayE","_std_VecVecPoint3f_data","_cv_wechat_qrcode_WeChatQRCode_setScaleFactor","__ZN2cv3MatC1ENS_5Size_IiEEiRKNS_7Scalar_IdEE","__ZN2cv8Subdiv2D6insertENS_6Point_IfEE","_std_VecI16_shrink_to_fit","_std_VecRect2f_resize","__ZN2cv13HOGDescriptor4readERNS_8FileNodeE","__ZNK2cv8FileNodeixEi","__ZN2cv16estimateAffine2DERKNS_11_InputArrayES2_RKNS_12_OutputArrayERKNS_10UsacParamsE","_std_VecVecPoint_reserve","__ZNK2cv5aruco5Board4Impl16matchImagePointsERKNS_11_InputArrayES5_RKNS_12_OutputArrayES8_","_cv_BRISK_getThreshold","_cv_AlignMTB_close","_WebPBlendAlpha","__ZN2cv16videoio_registry25getStreamBufferedBackendsEv","__ZN2cv3ocl8internal26isPerformanceCheckBypassedEv","__ZNK2cv16TLSDataContainer10gatherDataERNSt3__16vectorIPvNS1_9allocatorIS3_EEEE","__ZNK2cv21GraphicalCodeDetector6decodeERKNS_11_InputArrayES3_RKNS_12_OutputArrayE","__ZN2cvplERKNS_7MatExprERKNS_3MatE","__ZN2cv6detail8tracking23TrackerSamplerAlgorithmD2Ev","_cv_KalmanFilter_get_measurementNoiseCov","_cvLaplace","__ZN2cv3LDA19subspaceReconstructERKNS_11_InputArrayES3_S3_","__ZN2cv3hal21cvtBGRtoThreePlaneYUVEPKhmPhmiiibiNS_13AlgorithmHintE","__ZN2cv19QRCodeDetectorArucoC2ERKNS0_6ParamsE","_cvFilter2D","__ZN2cv14QRCodeDetector7setEpsYEd","__ZN2cv8multiplyERKNS_11_InputArrayES2_RKNS_12_OutputArrayEdi","__ZNK2cv10AsyncArray3getERKNS_12_OutputArrayEx","__ZN2cv3dnn14dnn4_v202506195Layer9initVkComERKNSt3__16vectorINS_3PtrINS1_14BackendWrapperEEENS3_9allocatorIS7_EEEERSA_","__ZN2cv15getNumberOfCPUsEv","__ZNK2cv10softdoubleeqERKS0_","__ZN2cv10softdoubleC2Ej","__ZNK2cv5aruco9GridBoard11getGridSizeEv","__ZN2cv19findContours_legacyERKNS_11_InputArrayERKNS_12_OutputArrayEiiNS_6Point_IiEE","_cv_TrackerMIL_update","_cv_KalmanFilter_get_controlMatrix","__ZN2cv3ocl9KernelArgC1Ev","__ZN2cv3hal6min64fEPKdmS2_mPdmiiPv","__ZN2cv6detail18GraphCutSeamFinder4Impl24setGraphWeightsColorGradERKNS_3MatES5_S5_S5_S5_S5_S5_S5_RNS0_7GCGraphIfEE","_cv_dnn_Net_readNetFromTensorflowBytes","__ZN2cv7vconcatERKNS_11_InputArrayERKNS_12_OutputArrayE","__ZN2cv25fastNlMeansDenoisingMultiERKNS_11_InputArrayERKNS_12_OutputArrayEiifii","__ZN2cv11convertMapsERKNS_11_InputArrayES2_RKNS_12_OutputArrayES5_ib","_std_VecUChar_clear","_cv_GFTTDetector_getBlockSize","__ZN2cv14createAlignMTBEiib","__ZNK2cv9Algorithm4saveERKNSt3__112basic_stringIcNS1_11char_traitsIcEENS1_9allocatorIcEEEE","__ZN2cv3dnn14dnn4_v202506193Net8setParamEiiRKNS_3MatE","_cvCompleteSymm","_cvGEMM","_cv_rowRange","__ZN2cv4UMatC1EOS0_","__ZN2cv3dnn14dnn4_v2025061916Image2BlobParamsC2Ev","_cv_Mat_get_Vec3i","_std_VecI16_set","__ZNK2cv17DescriptorMatcher20DescriptorCollection11getLocalIdxEiRiS2_","__ZN2cv3dnn14dnn4_v202506193Net4Impl14setInputsNamesERKNSt3__16vectorINS4_12basic_stringIcNS4_11char_traitsIcEENS4_9allocatorIcEEEENS9_ISB_EEEE","_std_VecU16_push_back","_cv_Mat_toVecPoint3i","__ZN2cv3ocl13ProgramSourceC1Ev","_cv_calcHist","_std_VecVec4i_extend","__ZN2cv9FormattedD2Ev","_cv_MSER_create","_cvCrossProduct","__ZN2cv9softfloatC1Ej","_std_VecVec6f_data","_std_VecVecDMatch_set","__ZN2cv5utils5trace7details6Region4ImplD1Ev","__ZN2cv6detail8tracking12TrackerModel17runStateEstimatorEv","_cvPyrUp","_cv_HOGDescriptor_detectMultiScale_1","__ZN2cv16AVIReadContainer10printErrorERNS_9RiffChunkEj","_cv_HoughLinesP","_cv_MergeMertens_close","__ZN2cv6detail18GraphCutSeamFinderD2Ev","_cvMakeHistHeaderForArray","_cv_getPerspectiveTransform2f","_cv_Mat_get_u16_2","_std_VecDMatch_get_p","_std_VecVecDMatch_push_back","__ZN2cv6detail15GainCompensator21prepareSimilarityMaskERKNSt3__16vectorINS_6Point_IiEENS2_9allocatorIS5_EEEERKNS3_INS_4UMatENS6_ISB_EEEE","__ZNK2cv4UMat5emptyEv","_std_VecU16_clone","_std_VecPoint3i_get","_std_VecChar_free","_cv_ximgproc_edgePreservingFilter","__ZN2cv3ocl6Kernel4Impl3runEiPmS3_bPxRKNS0_5QueueE","__ZN2cv12AsyncPromiseC2ERKS0_","__ZN2cv16imwriteanimationERKNSt3__112basic_stringIcNS0_11char_traitsIcEENS0_9allocatorIcEEEERKNS_9AnimationERKNS0_6vectorIiNS4_IiEEEE","_cvConvertScaleAbs","__ZN2cv6detail8tracking11ClfMilBoost6ParamsC2Ev","_std_VecPoint3f_data","_cv_BackgroundSubtractorKNN_create","_std_VecF32_clear","__ZNK2cv3dnn14dnn4_v202506193Net15getInputDetailsERNSt3__16vectorIfNS3_9allocatorIfEEEERNS4_IiNS5_IiEEEE","__ZN2cv3ocl6Kernel3setEiRKNS_4UMatE","__ZN2cv15ImageCollection4Impl8readDataEv","__ZN2cv8FileNode8setValueEiPKvi","_cv_CascadeClassifier_create","__ZNK2cv17DescriptorMatcher11radiusMatchERKNS_11_InputArrayES3_RNSt3__16vectorINS5_INS_6DMatchENS4_9allocatorIS6_EEEENS7_IS9_EEEEfS3_b","__ZN2cv4UMatC2ERKS0_","__ZN2cv11FileStorage5writeERKNSt3__112basic_stringIcNS1_11char_traitsIcEENS1_9allocatorIcEEEES9_","_cvFillConvexPoly","__ZNK2cv3ocl6Kernel29preferedWorkGroupSizeMultipleEv","_std_VecMat_shrink_to_fit","__ZN2cv3dnn14dnn4_v202506198LRNLayer6createERKNS1_11LayerParamsE","__ZN2cv5splitERKNS_3MatEPS0_","__ZN2cv5aruco13ArucoDetector13setDictionaryERKNS0_10DictionaryE","__ZNK2cv3ocl12PlatformInfo9getDeviceERNS0_6DeviceEi","_cv_UMat_col","__ZN2cv8UMatDataC1EPKNS_12MatAllocatorE","__ZN2cvorERKNS_3MatES2_","_cv_Mat_get_u8_2","__ZN2cvplERKNS_7MatExprES2_","__ZN2cv2ml9TrainDataD1Ev","__ZN2cv17AVIWriteContainer11getAVIIndexEiNS_10StreamTypeE","_cvSetRealND","__ZN2cv8img_hash18RadialVarianceHash17setNumOfAngleLineEi","_cvErrorStr","_cv_MSER_detectAndCompute","__ZN2cv9minMaxLocERKNS_9SparseMatEPdS3_PiS4_","_cvSmooth","__ZN2cv21BaseCascadeClassifierD0Ev","_std_VecVecPoint3f_new_1","_WebPPictureFree","__ZN2cvmlERKNS_3MatEd","_cvGet3D","_WebPMuxGetAnimationParams","_cv_theRNG","_cvRedirectError","_cvResize","_cv_Mat_op_div_i16","__ZN2cv3dnn14dnn4_v2025061912LayerFactory13registerLayerERKNSt3__112basic_stringIcNS3_11char_traitsIcEENS3_9allocatorIcEEEEPFNS_3PtrINS1_5LayerEEERNS1_11LayerParamsEE","_replaceWriteLogMessage","_std_VecI16_length","_std_VecUChar_free","_cv_PCACompute_1","__ZN2cv22getHardwareFeatureNameEi","_cv_StereoBM_getROI2","_cv_UMat_cols","__ZNK2cv3dnn14dnn4_v202506193Net20getMemoryConsumptionEiRKNSt3__16vectorINS4_IiNS3_9allocatorIiEEEENS5_IS7_EEEERmSC_","_cv_aruco_detectorParameters_set_adaptiveThreshConstant","__ZN2cv3dnn14dnn4_v2025061915RequantizeLayer6createERKNS1_11LayerParamsE","_std_VecVecPoint2f_reserve","_std_VecVec6f_set","__ZN2cv11VideoWriter4openERKNSt3__112basic_stringIcNS1_11char_traitsIcEENS1_9allocatorIcEEEEiidNS_5Size_IiEEb","__ZNK2cv5MatOp12augAssignAddERKNS_7MatExprERNS_3MatE","_std_VecVec6f_new_1","__ZN2cv3dnn14dnn4_v2025061917readNetFromTFLiteERKNSt3__16vectorIhNS2_9allocatorIhEEEE","__ZN2cv5aruco13ArucoDetectorC1ERKNSt3__16vectorINS0_10DictionaryENS2_9allocatorIS4_EEEERKNS0_18DetectorParametersERKNS0_16RefineParametersE","__ZN2cv3hal5DCT2D6createEiiii","_cv_Mat_isContinuous","__ZN2cv6detail8tracking14TrackerFeature7computeERKNSt3__16vectorINS_3MatENS3_9allocatorIS5_EEEERS5_","__ZN2cveqERKNS_16FileNodeIteratorES2_","_std_VecU64_set","_cv_StereoBM_getPreFilterType","__ZN2cv3dnn14dnn4_v2025061918CropAndResizeLayer6createERKNS1_11LayerParamsE","__ZN2cv8Subdiv2D8QuadEdgeC1Ev","_cvGetSpatialMoment","__ZN2cv8Subdiv2D8newPointENS_6Point_IfEEbi","_cv_SimpleBlobDetectorParams_create","__ZN2cv3ipp13getIppVersionEv","_cv_Mat_get_f64_2","__ZN2cv3ocl10haveAmdFftEv","__ZN2cv5writeERNS_11FileStorageERKNSt3__112basic_stringIcNS2_11char_traitsIcEENS2_9allocatorIcEEEERKNS_9SparseMatE","__ZN2cvplERKNS_7Scalar_IdEERKNS_7MatExprE","_cvCalcCovarMatrix","__ZN2cv3dnn14dnn4_v2025061919ActivationLayerInt86createERKNS1_11LayerParamsE","_cv_StereoSGBM_setNumDisparities","_cvMin","__ZN2cv15calcBackProjectEPKNS_3MatEiPKiRKNS_9SparseMatERKNS_12_OutputArrayEPPKfdb","_cv_AKAZE_getMaxPoints","_std_VecI32_clear","_cvRetrieveFrame","__ZN2cv8Stitcher17estimateTransformERKNS_11_InputArrayES3_","_std_VecF64_shrink_to_fit","__ZN2cv5utils5trace7details12TraceManagerD1Ev","__ZN2cv12ellipse2PolyENS_6Point_IiEENS_5Size_IiEEiiiiRNSt3__16vectorIS1_NS4_9allocatorIS1_EEEE","_cv_PSNR","_std_VecVecPoint_free","_std_VecRect_get_p","__ZN2cv3ocl8PlatformaSEOS1_","_cv_Mat_get_i16_2","_std_VecU64_length","_std_VecU8_clone","__ZN2cv16UMatDataAutoLockC2EPNS_8UMatDataES2_","_cv_dnn_Net_getPerfProfile","_std_VecVecDMatch_clone","__ZNK2cv12_OutputArray13getHostMemRefEv","_std_VecVecPoint2f_shrink_to_fit","_cv_pointPolygonTest2f","__ZN2cv3dnn14dnn4_v202506195LayerC1Ev","__ZN2cv3ocl7Context6createERKNSt3__112basic_stringIcNS2_11char_traitsIcEENS2_9allocatorIcEEEE","_cv_CascadeClassifier_close","__ZN2cv15ImageCollection8iteratorC1EPS0_","__ZN2cv10AsyncArrayC2ERKS0_","__ZNK2cv3dnn14dnn4_v202506195Layer13getScaleShiftERNS_3MatES4_","__ZNK2cv11_InputArray7getMat_Ei","__ZNK2cv9Algorithm11writeFormatERNS_11FileStorageE","_cv_patchNaNs","_cv_aruco_detectorParameters_get_aprilTagMaxNmaxima","_WebPDecodeYUVInto","__ZN2cv17accumulateProductERKNS_11_InputArrayES2_RKNS_17_InputOutputArrayES2_","_cvGraphVtxDegreeByPtr","__ZN2cv6detail8tracking32TrackerStateEstimatorMILBoosting12estimateImplERKNSt3__16vectorINS4_INS3_4pairINS_3PtrINS1_18TrackerTargetStateEEEfEENS3_9allocatorIS9_EEEENSA_ISC_EEEE","_std_VecPoint_push_back","__ZN2cv5AGASTERKNS_11_InputArrayERNSt3__16vectorINS_8KeyPointENS3_9allocatorIS5_EEEEibNS_20AgastFeatureDetector12DetectorTypeE","_cv_quality_QualityBRISQUE_compute_static","_cv_stereoRectify","__ZN2cv3hal9fastAtan2EPKfS2_Pfib","_cv_ximgproc_GraphSegmentation_close","__ZN2cv6detail12DisjointSets13findSetByElemEi","_getLogLevel","__ZN2cv25getDefaultNewCameraMatrixERKNS_11_InputArrayENS_5Size_IiEEb","__ZN2cv10PCAProjectERKNS_11_InputArrayES2_S2_RKNS_12_OutputArrayE","_std_VecVecDMatch_extend","_cv_BFMatcher_create_1","__ZN2cv16AVIReadContainer8skipJunkERNS_9RiffChunkE","__ZN2cv11FileStorage4ImplD2Ev","__ZN2cv3dnn14dnn4_v202506195Layer18updateMemoryShapesERKNSt3__16vectorINS4_IiNS3_9allocatorIiEEEENS5_IS7_EEEE","__ZNK2cv3dnn14dnn4_v202506193Net4Impl7getBlobENSt3__112basic_stringIcNS4_11char_traitsIcEENS4_9allocatorIcEEEE","__ZNK2cv4UMat9convertToERKNS_12_OutputArrayEidd","_cv_KalmanFilter_set_measurementNoiseCov","_cv_Mat_get_Vec4i","__ZNK2cv11FileStorage4ImplixEPKc","__ZNK2cv8Subdiv2D11getEdgeListERNSt3__16vectorINS_3VecIfLi4EEENS1_9allocatorIS4_EEEE","__ZNK2cv11FileStorage4Impl20getFirstTopLevelNodeEv","__ZN2cv9AlgorithmD1Ev","__ZN2cv12VideoCaptureD2Ev","__ZN2cv17CascadeClassifierD2Ev","__ZN2cvngERKNS_3MatE","_cv_KAZE_create","__ZN2cv8internal17ComputeHomographyENS_3MatES1_","_cv_UMat_t","_cv_getGaussianKernel","_WebPPictureHasTransparency","__ZN2cv3ocl5QueueC1ERKNS0_7ContextERKNS0_6DeviceE","__ZN2cv8imencodeERKNSt3__112basic_stringIcNS0_11char_traitsIcEENS0_9allocatorIcEEEERKNS_11_InputArrayERNS0_6vectorIhNS4_IhEEEERKNSC_IiNS4_IiEEEE","_cvSubstituteContour","__ZN2cv17AVIWriteContainer13endWriteChunkEv","_cv_contourArea2f","__ZN2cv9ExceptionC2EiRKNSt3__112basic_stringIcNS1_11char_traitsIcEENS1_9allocatorIcEEEES9_S9_i","_cv_Mat_op_div_mat","__ZN2cveqERKNS_3MatES2_","__ZNK2cv9SparseMat9convertToERNS_3MatEidd","__ZN2cv6detail20check_failed_MatTypeEiRKNS0_12CheckContextE","_cv_Mat_adjustROI","_cv_HOGDescriptor_groupRectangles","_cv_Mat_set_i8_3","_cvAddS","_cv_aruco_detectorParameters_get_adaptiveThreshWinSizeStep","__ZN2cv7quality14QualityBRISQUE7computeERKNS_11_InputArrayE","_cv_AKAZE_getDescriptorType","__ZN2cv8ximgproc19PeiLinNormalizationERKNS_11_InputArrayERKNS_12_OutputArrayE","__ZN2cv3ocl7Image2DC1ERKNS_4UMatEbb","__ZN2cv6invertERKNS_11_InputArrayERKNS_12_OutputArrayEi","__ZNK2cv3dnn14dnn4_v202506193Net4Impl15getLayerOutPinsERKNSt3__112basic_stringIcNS4_11char_traitsIcEENS4_9allocatorIcEEEE","__ZN2cv16PyRotationWarper9warpPointERKNS_6Point_IfEERKNS_11_InputArrayES7_","__ZN2cv3dnn14dnn4_v202506193Net4Impl7connectEiiii","__ZN2cv3dnn14dnn4_v202506195Layer8finalizeERKNSt3__16vectorINS_3MatENS3_9allocatorIS5_EEEERS8_","__ZN2cv9SparseMat13resizeHashTabEm","__ZN2cv3ocl13attachContextERKNSt3__112basic_stringIcNS1_11char_traitsIcEENS1_9allocatorIcEEEEPvSA_SA_","__ZN2cvgtERKNS_3MatEd","_std_VecPoint3i_new","_WebPGetMuxVersion","__ZN2cv3hal19cvtOnePlaneYUVtoBGREPKhmPhmiiibiiNS_13AlgorithmHintE","_cvCreateSeq","__ZN2cv3hal11Cholesky64fEPdmiS1_mi","__ZN2cv3dnn14dnn4_v202506193Net4Impl15getLayersShapesERKNSt3__16vectorINS5_IiNS4_9allocatorIiEEEENS6_IS8_EEEERS8_RNS5_ISA_NS6_ISA_EEEESG_","__ZNK2cv6detail8tracking32TrackerStateEstimatorMILBoosting21TrackerMILTargetState11getFeaturesEv","__ZN2cv3ocl6DeviceC2ERKS1_","__ZN2cv6detail20BundleAdjusterAffine12calcJacobianERNS_3MatE","_SharpYuvOptionsInitInternal","__ZN2cv6detail11MatchesInfoC2ERKS1_","__ZNK2cv8Subdiv2D7symEdgeEi","_cvFindCornerSubPix","__ZNK2cv7MatExpr3mulERKS0_d","__ZN2cv8FileNodeC1EPKNS_11FileStorageEmm","__ZNK2cv9softfloatneERKS0_","__ZN2cv4UMat3eyeENS_5Size_IiEEiNS_14UMatUsageFlagsE","__ZNK2cv3ocl6Device16image2DMaxHeightEv","__ZN2cv21estimateTranslation3DERKNS_11_InputArrayES2_RKNS_12_OutputArrayES5_dd","_cvCopyMakeBorder","__ZN2cv3MatC1ENS_5Size_IiEEiPvm","_cv_Mat_op_sub_f64","__ZN2cv5mergeEPKNS_3MatEmRKNS_12_OutputArrayE","__ZN2cv5utils2fs8FileLock4lockEv","__ZN2cv13matchTemplateERKNS_11_InputArrayES2_RKNS_12_OutputArrayEiS2_","__ZN2cv8Subdiv2DC1ENS_5Rect_IiEE","_cvGetSeqReaderPos","_cv_dnn_blobFromImages","_cv_StereoBM_getPreFilterSize","_cv_aruco_Dictionary_get_bytesList","_cv_ximgproc_GraphSegmentation_getMinSize","__ZN2cv17DescriptorMatcher8knnMatchERKNS_11_InputArrayERNSt3__16vectorINS5_INS_6DMatchENS4_9allocatorIS6_EEEENS7_IS9_EEEEiS3_b","__ZN2cv5BRISK6createERKNSt3__16vectorIfNS1_9allocatorIfEEEERKNS2_IiNS3_IiEEEEffSB_","_cvGraphRemoveEdge","_cv_dnn_Net_readNetBytes","_cv_ORB_empty","_cvInitFont","_std_VecPoint_clear","_cv_KAZE_close","_std_VecVecPoint_length","_cv_randShuffle","__ZNK2cv14DefaultDeleterI13CvVideoWriterEclEPS1_","_cv_Mat_set_u8_1","_cv_bitwise_or","__ZNK2cv11RotatedRect6pointsEPNS_6Point_IfEE","_cv_erode","_cv_Mat_get_Vec2f","__ZNK2cv12_OutputArray14createSameSizeERKNS_11_InputArrayEi","__ZTv0_n72_NK2cv3ORB14getDefaultNameEv","__ZN2cv3dnn14dnn4_v2025061913SoftplusLayer6createERKNS1_11LayerParamsE","_cv_undistort","__ZNK2cv13HOGDescriptor16detectMultiScaleERKNS_11_InputArrayERNSt3__16vectorINS_5Rect_IiEENS4_9allocatorIS7_EEEERNS5_IdNS8_IdEEEEdNS_5Size_IiEESG_ddb","_cv_BRISK_setPatternScale","__ZN2cv3dnn14dnn4_v202506193Net12enableFusionEb","__ZN2cv19QRCodeDetectorAruco6ParamsC2Ev","_cvClearSet","_cv_ximgproc_EdgeDrawing_create","__ZN2cv6detail14FeatherBlender7prepareENS_5Rect_IiEE","__ZN2cv9boxFilterERKNS_11_InputArrayERKNS_12_OutputArrayEiNS_5Size_IiEENS_6Point_IiEEbi","__ZN2cv12VideoCaptureD1Ev","__ZNK2cv8FileNodecvdEv","__ZN2cv3ocl12PlatformInfoC2EOS1_","__ZTv0_n72_NK2cv4SIFT14getDefaultNameEv","_cv_CLAHE_getTilesGridSize","_std_VecVecPoint_resize","_cv_computeCorrespondEpilines","__ZN2cv3MatC2ERKS0_RKNS_5RangeES5_","__ZNK2cv3dnn14dnn4_v202506193Net4Impl8getLayerEi","_cvTransform","__ZN9CvLevMarqC2Ev","__ZNK2cv3ocl6Kernel3ptrEv","_cv_KAZE_setUpright","__ZNK2cv7MatExpr3invEi","__ZNK2cv8Subdiv2D15getTriangleListERNSt3__16vectorINS_3VecIfLi6EEENS1_9allocatorIS4_EEEE","__ZN2cv16solvePnPRefineLMERKNS_11_InputArrayES2_S2_S2_RKNS_17_InputOutputArrayES5_NS_12TermCriteriaE","__ZN2cv15stereoCalibrateERKNS_11_InputArrayES2_S2_RKNS_17_InputOutputArrayES5_S5_S5_NS_5Size_IiEES5_S5_RKNS_12_OutputArrayESA_SA_iNS_12TermCriteriaE","__ZN2cv9floodFillERKNS_17_InputOutputArrayENS_6Point_IiEENS_7Scalar_IdEEPNS_5Rect_IiEES6_S6_i","__ZN2cv6detail12DpSeamFinder14findComponentsEv","__ZN2cv3ocl12PlatformInfoC2ERKS1_","_cv_GFTTDetector_getDefaultName","__ZN2cv10TrackerMILD0Ev","__ZN2cv3ocl6Device3setEPv","__ZN2cv3dnn14dnn4_v202506198MVNLayer6createERKNS1_11LayerParamsE","__ZN2cvgeERKNS_3MatES2_","_WebPMuxDelete","__ZN2cv16AVIReadContainer10parseIndexEjRNSt3__15dequeINS1_4pairIyjEENS1_9allocatorIS4_EEEE","__ZNK2cv3ocl6Device22nativeVectorWidthFloatEv","__ZN2cv11VideoWriter3setEid","__ZN2cv5instr8NodeDataaSERKS1_","__ZN2cv3hal5min8sEPKamS2_mPamiiPv","__ZN2cv5flann20AutotunedIndexParamsC1Effff","__ZN2cv3powERKNS_9softfloatES2_","_cv_kmeans","_cv_QRCodeDetector_close","__ZN2cv5instr18useInstrumentationEv","__ZNK2cv3dnn14dnn4_v202506193Net4Impl13getLayerTypesERNSt3__16vectorINS4_12basic_stringIcNS4_11char_traitsIcEENS4_9allocatorIcEEEENS9_ISB_EEEE","_std_VecI8_get","_std_VecVecPoint3f_new_2","__ZN2cv3dnn14dnn4_v202506193Net18setHalideSchedulerERKNSt3__112basic_stringIcNS3_11char_traitsIcEENS3_9allocatorIcEEEE","_cv_Mat_create_2","_cv_Mat_isSubmatrix","_cvSet3D","__ZNK2cv3ocl6Device7hasFP64Ev","_cvSolveCubic","_cv_warpPerspective_1","_cvIntegral","__ZN2cv6detail15GainCompensator11setMatGainsERNSt3__16vectorINS_3MatENS2_9allocatorIS4_EEEE","_cv_quality_QualityPSNR_compute","_cvGetSubRect","_cv_boundingRect2f","_std_VecU32_get","_cv_UMat_create_1","__ZNK2cv3dnn14dnn4_v202506193Net4Impl8getLayerERKNS1_9DictValueE","_cv_HOGDescriptor_getDaimlerPeopleDetector","__ZN2cv3dnn14dnn4_v202506193Net4Impl14getLayerShapesERKNSt3__16vectorINS5_IiNS4_9allocatorIiEEEENS6_IS8_EEEEiRNS1_6detail11LayerShapesE","_WebPDemuxInternal","__ZNK2cv17DescriptorMatcher10checkMasksERKNS_11_InputArrayEi","__ZN2cv8Subdiv2D11calcVoronoiEv","__ZNK2cv12_OutputArray6createEiPKiiibNS0_9DepthMaskE","__ZN2cv8FileNode17isEmptyCollectionEi","__ZN2cv3hal9cvt16f32fEPKNS_6hfloatEPfi","__ZN2cv5utils2fs8FileLockC2EPKc","__ZN2cv8img_hash18RadialVarianceHash8setSigmaEd","_cv_bitwise_xor","_std_VecF16_data","_cv_Mat_set_Vec4d","_cv_UMat_create_zeros_1","__ZN2cv3ocl22OpenCLExecutionContext6createERKNSt3__112basic_stringIcNS2_11char_traitsIcEENS2_9allocatorIcEEEEPvSB_SB_","__ZN2cv11RNG_MT19937cvjEv","_cv_HOGDescriptor_create","_cv_Mat_toVecChar","_cv_Mat_op_mul_i8","__ZN2cv21pyrMeanShiftFilteringERKNS_11_InputArrayERKNS_12_OutputArrayEddiNS_12TermCriteriaE","__ZN2cv3hal6add32sEPKimS2_mPimiiPv","_std_VecPoint2f_new","_cvDistTransform","__ZN2cv8ximgproc11EdgeDrawing6ParamsC2Ev","__ZNK2cv3ocl7Context6useSVMEv","__ZN2cv10meanStdDevERKNS_11_InputArrayERKNS_12_OutputArrayES5_S2_","__ZN2cv3ocl7Context6createEv","__ZN2cv6detail8tracking14TrackerSampler26addTrackerSamplerAlgorithmERKNS_3PtrINS1_23TrackerSamplerAlgorithmEEE","__ZN2cv4UMatC1EiPKiiRKNS_7Scalar_IdEENS_14UMatUsageFlagsE","__ZNK2cv9BFMatcher5cloneEb","_cvErode","_std_VecRotatedRect_new_2","_cv_isContourConvex","__ZN2cv9SparseMatC2Ev","__ZN2cv3hal8gemm32fcEPKfmS2_mfS2_mfPfmiiii","__Z10cvIplImageRKN2cv3MatE","__ZN2cv3ocl6Kernel12runProfilingEiPmS2_RKNS0_5QueueE","_cv_AgastFeatureDetector_getNonmaxSuppression","_cv_sortIdx","__ZN2cv3ocl5QueueaSERKS1_","_WebPMemoryWriterClear","__ZN2cv9Feature2D4readERKNS_8FileNodeE","__ZN2cv6detail17check_failed_autoEmRKNS0_12CheckContextE","__ZN2cv12AsyncPromiseD2Ev","__ZN2cv3LDAC2Ei","_cv_Mat_clone","__ZN2cv3ocl12PlatformInfoaSEOS1_","__ZN2cv8Subdiv2DC1Ev","__ZN2cv3dnn14dnn4_v2025061910ShiftLayer6createERKNS1_11LayerParamsE","_cv_getTickFrequency","__ZNK2cv3ocl6Device11maxSamplersEv","__ZTv0_n72_NK2cv19FastFeatureDetector14getDefaultNameEv","__ZN2cv3dnn14dnn4_v202506193Net14enableWinogradEb","__ZNK2cv17CascadeClassifier21getOriginalWindowSizeEv","_cv_aruco_Dictionary_get_maxCorrectionBits","_cv_textureFlattening","__ZN2cv3dnn14dnn4_v202506195Layer13unsetAttachedEv","_cv_dnn_Net_setPreferableTarget","_std_VecU64_new","_cv_Mat_get_Vec3w","__ZN2cv16MatConstIterator4seekEPKib","_cv_StereoSGBM_getP1","__ZNK2cv8Subdiv2D9getVertexEiPi","_cv_wechat_qrcode_WeChatQRCode_close","__ZN2cv16videoio_registry16isBackendBuiltInENS_16VideoCaptureAPIsE","_std_VecVecPoint3i_reserve","__ZN2cv3MatC2ERKS0_PKNS_5RangeE","__ZN2cv3hal5div8uEPKhmS2_mPhmiiPv","_cv_BFMatcher_close","__ZN2cv12cornerSubPixERKNS_11_InputArrayERKNS_17_InputOutputArrayENS_5Size_IiEES7_NS_12TermCriteriaE","__ZN2cv12KalmanFilter4initEiiii","__ZN2cv8UMatData4lockEv","__ZN2cv6detail8tracking32TrackerStateEstimatorMILBoosting21TrackerMILTargetStateC1ERKNS_6Point_IfEEiibRKNS_3MatE","__ZN2cv3ocl6KernelC2EPKcRKNS0_7ProgramE","__ZN2cv10TrackerMILC2Ev","__ZN2cv11FileStorage4Impl5writeERKNSt3__112basic_stringIcNS2_11char_traitsIcEENS2_9allocatorIcEEEEd","__ZN2cv8calcHistEPKNS_3MatEiPKiRKNS_11_InputArrayERKNS_12_OutputArrayEiS4_PPKfbb","__ZN2cv12countNonZeroERKNS_11_InputArrayE","__ZN2cveqEdRKNS_3MatE","__ZN2cv3MatC1ERKS0_","_cvGraphVtxDegree","__ZN2cv3hal8Filter2D6createEPhmiiiiiiiidiibb","__ZN2cv9softfloatC2Ex","__ZN2cv6detail8tracking32TrackerStateEstimatorMILBoostingC2Ei","_cvReleaseImage","__ZNK2cv7MatExpr1tEv","__ZN2cv3hal7sqrt32fEPKfPfi","__ZN2cv9FormatterD2Ev","__ZN2cv6detail7Blender4feedERKNS_11_InputArrayES4_NS_6Point_IiEE","__ZNK2cv5MatOp3addERKNS_7MatExprES3_RS1_","_std_VecRect_clear","_cv_StereoSGBM_setP1","__ZN2cv6detail14depthToString_Ei","_std_VecVecPoint3f_reserve","__ZN2cv17DescriptorMatcherD1Ev","_cv_Mat_channels","_std_VecI8_reserve","_cv_Mat_set_Vec6i","_cvCornerHarris","__ZN2cv11RNG_MT19937cvdEv","__ZN2cv5BRISK6createEiiRKNSt3__16vectorIfNS1_9allocatorIfEEEERKNS2_IiNS3_IiEEEEffSB_","__ZN2cv3hal11normHammingEPKhS2_i","__ZN2cv3hal6max32sEPKimS2_mPimiiPv","__ZN2cv3LDA4loadERKNSt3__112basic_stringIcNS1_11char_traitsIcEENS1_9allocatorIcEEEE","_cv_aruco_detectorParameters_set_polygonalApproxAccuracyRate","__ZNK2cv3ocl6Device12imageSupportEv","__ZN2cv11VideoWriter5writeERKNS_11_InputArrayE","__ZN2cv13applyColorMapERKNS_11_InputArrayERKNS_12_OutputArrayES2_","__ZN2cv3dnn14dnn4_v2025061916CorrelationLayer6createERKNS1_11LayerParamsE","__ZN2cv3SVDclERKNS_11_InputArrayEi","__ZN2cv10warpAffineERKNS_11_InputArrayERKNS_12_OutputArrayES2_NS_5Size_IiEEiiRKNS_7Scalar_IdEE","__ZN2cv5utils5trace7details6Region17LocationExtraDataC1ERKNS3_21LocationStaticStorageE","_cvAddWeighted","_cv_QRCodeDetector_create","__ZNK2cv12VideoCapture8isOpenedEv","__ZN2cv3dnn14dnn4_v202506199AtanLayer6createERKNS1_11LayerParamsE","_cv_dnn_Net_readNetFromTFLite","__ZN2cv11seqPopFrontEP5CvSeqPv","__ZN2cv6detail16MultiBandBlender5blendERKNS_17_InputOutputArrayES4_","__ZN2cv3ocl13ProgramSourceC2ERKNSt3__112basic_stringIcNS2_11char_traitsIcEENS2_9allocatorIcEEEE","_std_VecI64_resize","__ZN2cv3LDAD2Ev","_cvGetDiag","__ZN2cv3ocl11kernelToStrERKNS_11_InputArrayEiPKc","_cv_KalmanFilter_get_temp5","_cv_fisheye_estimateNewCameraMatrixForUndistortRectify","_std_VecU8_clear","__ZNK2cv5MatOp3addERKNS_7MatExprERKNS_7Scalar_IdEERS1_","__ZN2cv11RQDecomp3x3ERKNS_11_InputArrayERKNS_12_OutputArrayES5_S5_S5_S5_","__ZN2cv6detail8tracking32TrackerStateEstimatorMILBoosting21TrackerMILTargetStateC2ERKNS_6Point_IfEEiibRKNS_3MatE","_std_VecVec6f_get_p","__ZNK2cv5flann11IndexParams9getDoubleERKNSt3__112basic_stringIcNS2_11char_traitsIcEENS2_9allocatorIcEEEEd","__ZN2cv15ImageCollection4Impl7advanceEv","__ZN2cv14filterSpecklesERKNS_17_InputOutputArrayEdidS2_","__ZN2cvltERKNS_3MatEd","__ZN2cv7fisheye9calibrateERKNS_11_InputArrayES3_RKNS_5Size_IiEERKNS_17_InputOutputArrayESA_RKNS_12_OutputArrayESD_iNS_12TermCriteriaE","_cv_GFTTDetector_getMinDistance","_cv_ximgproc_EdgeDrawing_getSegmentIndicesOfLines","__ZN2cv3hal4sqrtEPKfPfi","__ZN2cv17AVIWriteContainerD2Ev","__ZNK2cv3dnn14dnn4_v202506193Net4Impl12getLayerDataERKNS1_9DictValueE","__ZN2cv7ellipseERKNS_17_InputOutputArrayENS_6Point_IiEENS_5Size_IiEEdddRKNS_7Scalar_IdEEiii","__ZNK2cv5aruco10Dictionary15getDistanceToIdERKNS_11_InputArrayEib","_WebPAnimEncoderNewInternal","__ZN2cv8ximgproc2rl12morphologyExERKNS_11_InputArrayERKNS_12_OutputArrayEiS4_bNS_6Point_IiEE","_cv_KAZE_getUpright","__ZN2cv5utils2fs8FileLock6unlockEv","_cv_completeSymm","_cv_convertPointsFromHomogeneous","__ZN2cv3dnn14dnn4_v2025061924blobFromImagesWithParamsERKNS_11_InputArrayERKNS_12_OutputArrayERKNS1_16Image2BlobParamsE","_std_VecI32_new_2","__ZN2cv3hal6cmp32fEPKfmS2_mPhmiiPv","__ZN2cv6repeatERKNS_11_InputArrayEiiRKNS_12_OutputArrayE","_cv_AKAZE_setDescriptorSize","__ZN2cv16AVIReadContainer9parseRiffERNSt3__15dequeINS1_4pairIyjEENS1_9allocatorIS4_EEEE","__ZN2cv3dnn14dnn4_v202506193NetD2Ev","__ZNK2cv3ocl6Device15linkerAvailableEv","__ZNK2cv8FileNode7rawSizeEv","__ZN2cv3dnn14dnn4_v202506195Layer11tryQuantizeERKNSt3__16vectorINS4_IfNS3_9allocatorIfEEEENS5_IS7_EEEERKNS4_INS4_IiNS5_IiEEEENS5_ISD_EEEERNS1_11LayerParamsE","_cvNextGraphItem","__ZN2cv3MatC2ERKNSt3__16vectorIiNS1_9allocatorIiEEEEi","__ZN2cv14QRCodeDetector11getEncodingEi","__ZN2cv3dnn14dnn4_v202506193Net4Impl8setParamEiiRKNS_3MatE","_cvSetRemove","__ZN2cv16findEssentialMatERKNS_11_InputArrayES2_S2_S2_S2_S2_iddRKNS_12_OutputArrayE","_cv_FastFeatureDetector_getThreshold","_std_VecRect2f_shrink_to_fit","__ZN2cv5flann5Index5buildERKNS_11_InputArrayERKNS0_11IndexParamsEN7cvflann16flann_distance_tE","__ZN2cv3dnn14dnn4_v2025061910ReorgLayer6createERKNS1_11LayerParamsE","_WebPPictureYUVAToARGB","__ZN2cv3dnn14dnn4_v202506193Net11dumpToPbtxtERKNSt3__112basic_stringIcNS3_11char_traitsIcEENS3_9allocatorIcEEEE","__ZN2cv7MatExprC2ERKNS_3MatE","__ZNK2cv3Mat9locateROIERNS_5Size_IiEERNS_6Point_IiEE","__ZN2cv11VideoWriter4openERKNSt3__112basic_stringIcNS1_11char_traitsIcEENS1_9allocatorIcEEEEiidRKNS_5Size_IiEERKNS1_6vectorIiNS5_IiEEEE","_cv_goodFeaturesToTrack","__ZNK2cv3Mat7getUMatENS_10AccessFlagENS_14UMatUsageFlagsE","_cv_FaceDetectorYN_create","_cv_estimateAffine2D_1","_cv_aruco_detectorParameters_get_adaptiveThreshWinSizeMax","__ZN2cv17AVIWriteContainer10jputStreamEj","__ZN2cv3ocl6KernelC2EPKcRKNS0_13ProgramSourceERKNSt3__112basic_stringIcNS7_11char_traitsIcEENS7_9allocatorIcEEEEPSD_","_cvReleaseGraphScanner","__ZN2cv3hal21cvtThreePlaneYUVtoBGREPKhmPhmiiibiNS_13AlgorithmHintE","__ZN2cv3dnn14dnn4_v2025061921DataAugmentationLayer6createERKNS1_11LayerParamsE","_cv_Subdiv2D_getEdgeList","__ZN2cvltERKNS_3MatES2_","__ZN2cv11imreadmultiERKNSt3__112basic_stringIcNS0_11char_traitsIcEENS0_9allocatorIcEEEERNS0_6vectorINS_3MatENS4_ISA_EEEEi","__ZN2cv3dnn14dnn4_v202506198RNNLayer6createERKNS1_11LayerParamsE","__ZN2cv6detail12CameraParamsC2ERKS1_","_cv_Mat_set_i8_2","__ZN2cv3dnn14dnn4_v202506195Layer8initCUDAEPvRKNSt3__16vectorINS_3PtrINS1_14BackendWrapperEEENS4_9allocatorIS8_EEEESD_","__ZN2cv12VideoCaptureC2EiiRKNSt3__16vectorIiNS1_9allocatorIiEEEE","_std_VecRect2f_reserve","__ZNK2cv3ocl6Device15maxWorkItemDimsEv","__ZN2cv7quality11QualityGMSD9_mat_dataC1ERKNS_4UMatE","_cvPtr2D","_cv_Mat_op_mul_i16","_cv_ximgproc_EdgeBoxes_setEdgeMinMag","_WebPEncodeLosslessBGRA","__ZN2cv6detail17check_failed_trueEbRKNS0_12CheckContextE","_cv_decomposeProjectionMatrix","_cv_sum","__ZN2cv10softdoubleC2Ey","__ZN2cv4UMat5zerosEiiiNS_14UMatUsageFlagsE","_cv_dnn_Net_readNetFromONNX","__ZN2cv3ocl7Context9setUseSVMEb","__ZN2cv4UMat9adjustROIEiiii","_std_VecU16_extend","_std_VecI8_extend","__ZN2cv8ximgproc15createEdgeBoxesEffffifffffff","__ZNK2cv3ocl22OpenCLExecutionContext9useOpenCLEv","__ZN2cv11VideoWriterC1ERKNSt3__112basic_stringIcNS1_11char_traitsIcEENS1_9allocatorIcEEEEidNS_5Size_IiEEb","__ZN2cv3hal10invSqrt32fEPKfPfi","_cv_aruco_Dictionary_get_markerSize","__ZN2cv3dnn14dnn4_v2025061911InterpLayer6createERKNS1_11LayerParamsE","_cv_Mat_convertTo","__ZN2cv3dnn14dnn4_v202506198CosLayer6createERKNS1_11LayerParamsE","_cv_multiply","__ZN2cv6detail21leaveBiggestComponentERNSt3__16vectorINS0_13ImageFeaturesENS1_9allocatorIS3_EEEERNS2_INS0_11MatchesInfoENS4_IS8_EEEEf","__ZN2cv3ocl7ContextaSEOS1_","_cv_setNumThreads","_std_VecPoint3f_get","_cvMemStorageAlloc","__ZN2cv11FileStorage16startWriteStructERKNSt3__112basic_stringIcNS1_11char_traitsIcEENS1_9allocatorIcEEEEiS9_","__ZNK2cv7MatExpr4typeEv","__ZN2cv11writeScalarERNS_11FileStorageEd","__ZN2cv5utils2fs15createDirectoryERKNSt3__112basic_stringIcNS2_11char_traitsIcEENS2_9allocatorIcEEEE","_cv_ximgproc_rl_erode","_std_VecChar_resize","__ZN2cv3hal11cvtLabtoBGREPKhmPhmiiiibbb","_cv_approxPolyN","__ZNK2cv6detail8tracking12TrackerModel17getConfidenceMapsEv","__ZN2cv5utils2fs6getcwdEv","_cv_FlannBasedMatcher_close","__ZN2cv3dnn14dnn4_v2025061911ConcatLayer6createERKNS1_11LayerParamsE","__ZNK2cv3Mat6copyToERKNS_12_OutputArrayE","_cv_Mat_dims","__ZN2cv3dnn14dnn4_v2025061916SoftmaxLayerInt86createERKNS1_11LayerParamsE","_cvSliceLength","_cv_findTransformECC","__ZNK2cv6detail20BundleAdjusterReproj25obtainRefinedCameraParamsERNSt3__16vectorINS0_12CameraParamsENS2_9allocatorIS4_EEEE","__ZN2cv6detail21BestOf2NearestMatcher14collectGarbageEv","__ZNK2cv15ImageCollection4sizeEv","__ZN2cv12HoughCirclesERKNS_11_InputArrayERKNS_12_OutputArrayEiddddii","__ZN2cv5SobelERKNS_11_InputArrayERKNS_12_OutputArrayEiiiiddi","__ZN2cv3dnn14dnn4_v202506193Net10dumpToFileERKNSt3__112basic_stringIcNS3_11char_traitsIcEENS3_9allocatorIcEEEE","__ZN2cv9SparseMatC1ERKS0_","__ZN2cv11FileStorage4Impl22switch_to_Base64_stateENS_15FileStorage_API11Base64StateE","__ZN2cv3dnn14dnn4_v2025061916readNetFromCaffeERKNSt3__112basic_stringIcNS2_11char_traitsIcEENS2_9allocatorIcEEEESA_","__ZN2cv5aruco18DetectorParameters23writeDetectorParametersERNS_11FileStorageERKNSt3__112basic_stringIcNS4_11char_traitsIcEENS4_9allocatorIcEEEE","_std_VecF16_clone","__ZN2cv9Feature2D16detectAndComputeERKNS_11_InputArrayES3_RNSt3__16vectorINS_8KeyPointENS4_9allocatorIS6_EEEERKNS_12_OutputArrayEb","__ZN2cv3hal6SVD32fEPfmS1_S1_mS1_miii","__ZN2cv11FileStorage4Impl9get_spaceEv","__ZN2cv3hal10invSqrt64fEPKdPdi","_cv_FaceDetectorYN_setTopK","_cv_Mat_set_u16_2","_cv_ORB_detectAndCompute","__ZN2cv10convexHullERKNS_11_InputArrayERKNS_12_OutputArrayEbb","__ZTv0_n72_NK2cv20AgastFeatureDetector14getDefaultNameEv","__ZNK2cv3ocl6Device20isExtensionSupportedERKNSt3__112basic_stringIcNS2_11char_traitsIcEENS2_9allocatorIcEEEE","_cv_Mat_set_Vec4b","__ZN2cv4UMatC2EiPKiiRKNS_7Scalar_IdEENS_14UMatUsageFlagsE","_cv_UMat_rowRange","_std_VecVecPoint3i_length","_cv_StereoSGBM_getSpeckleRange","_cv_phase","__ZN2cv11FileStorage4Impl16getCurrentStructEv","_cv_ximgproc_EdgeDrawing_getParams","__ZN2cv3hal7recip8uEPKhmS2_mPhmiiPv","__ZN2cv17DescriptorMatcher20DescriptorCollectionC2Ev","__ZN2cv6detail20computeImageFeaturesERKNS_3PtrINS_9Feature2DEEERKNS_11_InputArrayERNSt3__16vectorINS0_13ImageFeaturesENS9_9allocatorISB_EEEES8_","_cv_aruco_detectorParameters_set_minMarkerDistanceRate","_cvCreateImage","_cv_RNG_fill","_cv_VideoCapture_create","__ZN2cv3dnn14dnn4_v202506198ErfLayer6createERKNS1_11LayerParamsE","_cvClearSeq","_cv_accumulateSquare_1","__ZNK2cv3Mat9convertToERKNS_12_OutputArrayEidd","__ZN2cv5aruco9GridBoardC2ERKNS_5Size_IiEEffRKNS0_10DictionaryERKNS_11_InputArrayE","__ZN2cv3dnn14dnn4_v202506198GRULayer6createERKNS1_11LayerParamsE","_cvClone","__ZN2cv3dnn14dnn4_v202506193NetC1Ev","_cvInRange","_cvGetImageCOI","_cv_FastFeatureDetector_setType","_cv_quality_QualityBRISQUE_close","_cv_ORB_getMaxFeatures","__ZN2cv25groupRectangles_meanshiftERNSt3__16vectorINS_5Rect_IiEENS0_9allocatorIS3_EEEERNS1_IdNS4_IdEEEESA_dNS_5Size_IiEE","__ZN2cv3dnn14dnn4_v2025061921InnerProductLayerInt86createERKNS1_11LayerParamsE","__ZN2cv6detail18GraphCutSeamFinder4Impl10findInPairEmmNS_5Rect_IiEE","__ZN2cv11VideoWriterC1Ev","__ZN2cv6detail8tracking17TrackerFeatureSetC2Ev","__ZN2cv9minMaxIdxERKNS_11_InputArrayEPdS3_PiS4_S2_","__ZN2cv6detail12DpSeamFinderC1ENS1_12CostFunctionE","_std_VecI32_set","_WebPEncodeLosslessRGB","__ZN2cv3Mat10push_back_EPKv","_std_VecU8_shrink_to_fit","__ZN2cv3dnn14dnn4_v2025061911CumSumLayer6createERKNS1_11LayerParamsE","_cvFloodFill","_std_VecDMatch_data","__ZN2cv3hal6mul16uEPKtmS2_mPtmiiPv","_cv_aruco_detectorParameters_set_maxErroneousBitsInBorderRate","_std_VecU8_get","_cvSVBkSb","__ZN2cv11VideoWriterC2ERKNSt3__112basic_stringIcNS1_11char_traitsIcEENS1_9allocatorIcEEEEiidRKNS_5Size_IiEERKNS1_6vectorIiNS5_IiEEEE","__ZN2cv3minERKNS_3MatES2_RS0_","_WebPDecodeRGB","__ZN2cv7quality11QualitySSIM9_mat_dataC1ERKNS_4UMatE","__ZN2cv11setIdentityERKNS_17_InputOutputArrayERKNS_7Scalar_IdEE","__ZN2cv8FileNodeC2ERKS0_","_cv_bitwise_and_1","__ZNK2cv11RotatedRect14boundingRect2fEv","_std_VecVec6f_reserve","_cvCloneMatND","__ZN2cv16FileNodeIteratorppEv","_cv_MSER_setMaxEvolution","__ZN2cv3hal10absdiff16uEPKtmS2_mPtmiiPv","_std_VecRect2f_data","__ZN2cv8Subdiv2D12clearVoronoiEv","__ZNK2cv3SVD9backSubstERKNS_11_InputArrayERKNS_12_OutputArrayE","__ZN2cv3ocl13ProgramSourceC2ERKS1_","__ZN2cv3dnn14dnn4_v2025061910BlankLayer6createERKNS1_11LayerParamsE","_std_VecI32_get","__ZN2cv6detail12CameraParamsC2Ev","__ZN2cv6detail8tracking11ClfMilBoostD1Ev","_cvPolyLine","__ZN2cv5flann11IndexParams8setFloatERKNSt3__112basic_stringIcNS2_11char_traitsIcEENS2_9allocatorIcEEEEf","__ZNK2cv17CascadeClassifier5emptyEv","__ZN2cv3ocl7ContextC1Ei","__ZNK2cv21GraphicalCodeDetector20detectAndDecodeMultiERKNS_11_InputArrayERNSt3__16vectorINS4_12basic_stringIcNS4_11char_traitsIcEENS4_9allocatorIcEEEENS9_ISB_EEEERKNS_12_OutputArrayESH_","__ZN2cv8FileNodeC2EPKNS_11FileStorageEmm","_std_VecPoint_get","_cv_GFTTDetector_close","_cv_Mat_set_Vec6f","_cv_boundingRect","__ZN2cv3dnn14dnn4_v2025061918NormalizeBBoxLayer6createERKNS1_11LayerParamsE","_cv_Subdiv2D_insert","_std_VecU8_length","_cv_Mat_create_9","_cv_fisheye_undistortImage_1","__ZN2cv3dnn14dnn4_v202506199TopKLayer6createERKNS1_11LayerParamsE","_cv_stereoCalibrate","__ZNK2cv4SIFT14getDefaultNameEv","_cvCalcPCA","_WebPEncodeRGB","__ZN2cv16findEssentialMatERKNS_11_InputArrayES2_S2_S2_S2_S2_RKNS_12_OutputArrayERKNS_10UsacParamsE","__ZNK2cv5flann11IndexParams9getStringERKNSt3__112basic_stringIcNS2_11char_traitsIcEENS2_9allocatorIcEEEESA_","__ZNK2cv3dnn14dnn4_v202506193Net15getLayersShapesERKNSt3__16vectorINS4_IiNS3_9allocatorIiEEEENS5_IS7_EEEERS7_RNS4_IS9_NS5_IS9_EEEESF_","_cvStartAppendToSeq","__ZN2cv9AlgorithmD2Ev","_cvLog","_std_VecVecChar_push_back","__ZN2cv2ml9StatModel5trainERKNS_11_InputArrayEiS4_","__ZN2cvplERKNS_3MatERKNS_7Scalar_IdEE","_std_VecVec6f_shrink_to_fit","__ZN2cv4UMat3eyeEiiiNS_14UMatUsageFlagsE","__ZNK2cv15ImageCollection4Impl6heightEv","_cv_medianBlur","__ZN2cv9SparseMatC1ERKNS_3MatE","_std_VecMat_resize","__ZN2cv3hal2LUEPdmiS1_mi","__ZN2cv4UMat6addrefEv","__ZN2cv14QRCodeDetector7setEpsXEd","__ZN2cv5utils2fs17createDirectoriesERKNSt3__112basic_stringIcNS2_11char_traitsIcEENS2_9allocatorIcEEEE","__ZNK2cv11_InputArray5depthEi","__ZN2cv5flann12SearchParamsC2Eifb","__ZN2cv6detail10overlapRoiENS_6Point_IiEES2_NS_5Size_IiEES4_RNS_5Rect_IiEE","__ZN2cv8scaleAddERKNS_11_InputArrayEdS2_RKNS_12_OutputArrayE","__ZN2cv8clipLineENS_5Size_IxEERNS_6Point_IxEES4_","__ZN2cv12boundingRectERKNS_11_InputArrayE","__ZN2cv17AVIWriteContainerC1Ev","__ZN2cv3hal11normHammingEPKhi","__ZN2cv8calcHistEPKNS_3MatEiPKiRKNS_11_InputArrayERNS_9SparseMatEiS4_PPKfbb","__ZNK2cv3ocl6Device16memBaseAddrAlignEv","__ZN2cv15ImageCollection4ImplC1ERKNSt3__112basic_stringIcNS2_11char_traitsIcEENS2_9allocatorIcEEEEi","__ZN2cv3ocl5QueueC1EOS1_","__ZN2cv6detail17BlocksCompensator11getMatGainsERNSt3__16vectorINS_3MatENS2_9allocatorIS4_EEEE","__ZN2cv8ximgproc2rl6dilateERKNS_11_InputArrayERKNS_12_OutputArrayES4_NS_6Point_IiEE","_std_VecRotatedRect_get_p","_SharpYuvGetVersion","_cvDrawContours","_cv_fisheye_undistortImage","__ZN2cv5flann14LshIndexParamsC1Eiii","__ZN2cv5flann17KMeansIndexParamsC1EiiN7cvflann20flann_centers_init_tEf","__ZN2cv3hal13addRNGBias32fEPfPKfi","__ZN2cv15NAryMatIteratorC1EPPKNS_3MatEPPhi","__ZN2cvmlERKNS_7MatExprEd","_std_VecVecPoint3f_length","_cv_BRISK_getDefaultName","_cvCornerMinEigenVal","_cv_UMat_deallocate","_cvGrabFrame","_cv_UMat_setTo","_cv_aruco_detectorParameters_set_aprilTagCriticalRad","_std_VecU32_free","__ZN2cv3ocl7Image2DD1Ev","__ZN2cv3hal6mul64fEPKdmS2_mPdmiiPv","__ZN2cv10TrackerMIL6ParamsC1Ev","__ZN2cv4UMatC1ENS_5Size_IiEEiRKNS_7Scalar_IdEENS_14UMatUsageFlagsE","_cvPyrDown","_cv2DRotationMatrix","__ZN2cv3ocl7Image2DC1ERKS1_","_std_VecVecDMatch_shrink_to_fit","__ZN2cv3ipp6useIPPEv","__ZN2cv3dnn14dnn4_v2025061921readNetFromTensorflowEPKcmS3_m","__ZNK2cv5aruco5Board12getObjPointsEv","__ZN2cv9thresholdERKNS_11_InputArrayERKNS_12_OutputArrayEddi","__ZNK2cv3dnn14dnn4_v202506193Net4Impl23getUnconnectedOutLayersEv","__ZN2cv3hal14addWeighted16uEPKtmS2_mPtmiiPv","_WebPMuxDeleteFrame","_WebPGetWorkerInterface","__ZN2cv11FileStorage4Impl7releaseEPNSt3__112basic_stringIcNS2_11char_traitsIcEENS2_9allocatorIcEEEE","_cv_aruco_generateImageMarker","_std_VecVecPoint_new_2","__ZNK2cv8FileNodecvxEv","_cvGetCentralMoment","__ZNK2cv3dnn14dnn4_v202506193Net8getFLOPSERKNSt3__16vectorINS4_IiNS3_9allocatorIiEEEENS5_IS7_EEEE","_std_VecI64_get","_cv_arrowedLine","__ZN2cv6detail17BundleAdjusterRay12calcJacobianERNS_3MatE","__ZN2cvanERKNS_7Scalar_IdEERKNS_3MatE","__ZN2cv3hal23cvtMultipliedRGBAtoRGBAEPKhmPhmii","__ZN2cv9SparseMat3ptrEibPm","_std_VecChar_clear","__ZN2cv12seqPushFrontEP5CvSeqPKv","_std_VecMat_get","_cvPointSeqFromMat","_cv_convertScaleAbs","__ZN2cv7fisheye13projectPointsERKNS_11_InputArrayERKNS_12_OutputArrayERKNS_7Affine3IdEES3_S3_dS6_","__ZN2cv21getStructuringElementEiNS_5Size_IiEENS_6Point_IiEE","__ZNK2cv11_InputArray4sizeEi","__ZN2cv5CannyERKNS_11_InputArrayERKNS_12_OutputArrayEddib","__ZN2cv3ocl7Image2DaSEOS1_","__ZN2cv3dnn14dnn4_v202506193Net4Impl12getBlobAsyncERKNS1_6detail8LayerPinE","__ZN2cv3dnn14dnn4_v202506193Net4Impl7forwardERNSt3__16vectorINS5_INS_3MatENS4_9allocatorIS6_EEEENS7_IS9_EEEERKNS5_INS4_12basic_stringIcNS4_11char_traitsIcEENS7_IcEEEENS7_ISH_EEEE","_std_VecVecPoint3f_length_i","__ZNK2cv3ocl6Device14doubleFPConfigEv","__ZN2cv13IStreamReaderD0Ev","_std_VecPoint_length","__ZN2cv6detail8tracking11ClfMilBoostC2Ev","__ZN2cv16AVIReadContainerC2Ev","_cvGetND","__ZN2cvdvERKNS_3MatES2_","_cvSeqSort","_cvSeqPopFront","__ZN2cv20allocSingletonBufferEm","__ZN2cv5utils10BufferArea9zeroFill_EPPv","__ZN2cv16findEssentialMatERKNS_11_InputArrayES2_S2_iddiRKNS_12_OutputArrayE","_cv_Mat_set_Vec2w","_cv_Mat_set_Vec4i","__ZN2cv11FileStorage4Impl4getsEm","__ZNK2cv3ocl6Device24preferredVectorWidthCharEv","__ZN2cv6detail11PlaneWarper9warpPointERKNS_6Point_IfEERKNS_11_InputArrayES8_S8_","__ZNK2cv3ocl6Device26preferredVectorWidthDoubleEv","__ZN2cv17DescriptorMatcher5trainEv","_cv_MSER_setAreaThreshold","__ZN2cv4UMatC2ENS_5Size_IiEEiNS_14UMatUsageFlagsE","__ZN2cv6detail8tracking17TrackerFeatureSetD1Ev","__ZN2cv10softdoubleC1Ei","__ZN2cv16TLSDataContainerD1Ev","__ZN2cv6detail8tracking17TrackerFeatureSet14clearResponsesEv","__ZN2cv2ml9ParamGrid6createEddd","_cvClearGraph","__ZNK2cv10softdoublegeERKS0_","__ZNK2cv8FileNode3ptrEv","_cv_KalmanFilter_set_processNoiseCov","_cv_VideoWriter_open_1","__ZNK2cv9Feature2D14descriptorTypeEv","__ZN2cv3hal6div32fEPKfmS2_mPfmiiPv","__ZNK2cv3dnn14dnn4_v202506193Net8getParamEii","_cv_ximgproc_EdgeBoxes_setKappa","__ZN2cv3MatC1EiiiPvm","__ZNK2cv3ocl6Device18deviceVersionMajorEv","__ZN2cv18SimpleBlobDetector6Params4readERKNS_8FileNodeE","__ZN2cv3ocl5TimerC1ERKNS0_5QueueE","_cv_flann_IndexParams_setString","__ZN2cv22SparsePyrLKOpticalFlow6createENS_5Size_IiEEiNS_12TermCriteriaEid","_cv_HOGDescriptor_detect","_cv_ximgproc_EdgeBoxes_getKappa","__ZN2cvltEdRKNS_3MatE","_cvGetAffineTransform","_cv_MSER_close","__ZN2cv5phaseERKNS_11_InputArrayES2_RKNS_12_OutputArrayEb","_cv_HOGDescriptor_detectMultiScale","_cv_Mat_create","__ZN2cv3dnn14dnn4_v202506199CeluLayer6createERKNS1_11LayerParamsE","__ZN2cv6detail17BlocksCompensator10getGainMapERKNS0_19ChannelsCompensatorEiNS_5Size_IiEE","__ZN2cv3MatC1EOS0_","_cvReleaseStructuringElement","__ZN2cv6detail17BundleAdjusterRay24setUpInitialCameraParamsERKNSt3__16vectorINS0_12CameraParamsENS2_9allocatorIS4_EEEE","__ZN2cv3logERKNS_9softfloatE","_cv_quality_QualityPSNR_close","_cv_GaussianBlur","__ZN2cv3ocl9typeToStrEi","__ZN2cv3hal24warpPerspectiveBlocklineEPKdPsS3_dddi","__ZN2cv9Feature2D7computeERKNS_11_InputArrayERNSt3__16vectorINS5_INS_8KeyPointENS4_9allocatorIS6_EEEENS7_IS9_EEEERKNS_12_OutputArrayE","__ZN2cv10HoughLinesERKNS_11_InputArrayERKNS_12_OutputArrayEddiddddb","__ZNK2cv3ocl6Device13OpenCLVersionEv","_std_VecDMatch_free","__ZN2cv3dnn14dnn4_v2025061912SoftmaxLayer6createERKNS1_11LayerParamsE","_cvRestoreMemStoragePos","_cv_BackgroundSubtractorKNN_create_1","__ZNK2cv17DescriptorMatcher5writeERNS_11FileStorageE","_cv_decomposeEssentialMat","_cv_warpAffine","_cvSeqPop","__ZN2cv11dnn_backend14NetworkBackendD1Ev","__ZN2cv15getCPUTickCountEv","__ZN2cv14correctMatchesERKNS_11_InputArrayES2_S2_RKNS_12_OutputArrayES5_","__Z6cvCeilRKN2cv10softdoubleE","_cv_UMat_step1","__ZN2cv22decomposeHomographyMatERKNS_11_InputArrayES2_RKNS_12_OutputArrayES5_S5_","__ZN2cv17adaptiveThresholdERKNS_11_InputArrayERKNS_12_OutputArrayEdiiid","__ZN2cv3hal10absdiff32sEPKimS2_mPimiiPv","_std_VecI16_new_2","__ZNK2cv11_InputArray11isSubmatrixEi","__ZN2cv8img_hash11ImgHashBaseC2Ev","__ZN2cv18minEnclosingCircleERKNS_11_InputArrayERNS_6Point_IfEERf","__ZN2cv14insertImageCOIERKNS_11_InputArrayEPvi","_cv_GFTTDetector_getMaxFeatures","__ZN2cv15KeyPointsFilter15runByPixelsMaskERNSt3__16vectorINS_8KeyPointENS1_9allocatorIS3_EEEERKNS_3MatE","_cvEndFindContours","__ZN2cv5flann12SearchParamsC2Eifbb","_std_VecPoint_get_p","_cv_ximgproc_StructuredEdgeDetection_create","__ZNK2cv17DescriptorMatcher5matchERKNS_11_InputArrayES3_RNSt3__16vectorINS_6DMatchENS4_9allocatorIS6_EEEES3_","_std_VecU8_push_back","__ZN2cv3hal6log32fEPKfPfi","__ZN2cv5flann5IndexD2Ev","_cv_Mat_create_6","__ZN2cv3dnn14dnn4_v202506193Net22readFromModelOptimizerERKNSt3__16vectorIhNS3_9allocatorIhEEEES9_","_cv_quality_QualityBRISQUE_compute","__ZN2cv21invertAffineTransformERKNS_11_InputArrayERKNS_12_OutputArrayE","__ZN2cv11determinantERKNS_11_InputArrayE","_WebPMuxGetCanvasSize","__ZN2cv23getPerspectiveTransformEPKNS_6Point_IfEES3_i","_cv_UMat_dims","__ZN2cv6detail8resultTlERKNSt3__16vectorINS_6Point_IiEENS1_9allocatorIS4_EEEE","__ZN2cv3hal3expEPKdPdi","_VP8GetInfo","__ZN2cv5utils7logging14setLogTagLevelEPKcNS1_8LogLevelE","__ZN2cv6detail17BlocksCompensator11setMatGainsERNSt3__16vectorINS_3MatENS2_9allocatorIS4_EEEE","_std_VecRotatedRect_resize","__ZN2cv3ocl6DeviceC1ERKS1_","__ZN2cv5flann11IndexParams9setStringERKNSt3__112basic_stringIcNS2_11char_traitsIcEENS2_9allocatorIcEEEESA_","__ZN2cv11FileStorageC1Ev","_cv_MSER_getMinArea","__ZNK2cv6detail12CameraParams1KEv","__ZN2cv3ocl5TimerD2Ev","_cvGetImage","_cv_SimpleBlobDetector_create_1","_cv_UMat_create_eye","_cv_AgastFeatureDetector_setType","__ZN2cv10TrackerMIL6createERKNS0_6ParamsE","__ZNK2cv3dnn14dnn4_v202506193Net14getLayersCountERKNSt3__112basic_stringIcNS3_11char_traitsIcEENS3_9allocatorIcEEEE","_cvEigenVV","_cv_Sobel","_std_VecI32_shrink_to_fit","__ZN2cv3hal5max8sEPKamS2_mPamiiPv","_cv_aruco_detectorParameters_get_aprilTagDeglitch","__ZN2cv6detail17check_failed_autoEdRKNS0_12CheckContextE","_cv_AgastFeatureDetector_getDefaultName","__ZN2cv3dnn14dnn4_v202506198ExpLayer6createERKNS1_11LayerParamsE","__ZN2cv3ocl6Kernel6createEPKcRKNS0_7ProgramE","_cvAlloc","_cv_quality_QualityGMSD_compute","__ZN2cv17CascadeClassifier16detectMultiScaleERKNS_11_InputArrayERNSt3__16vectorINS_5Rect_IiEENS4_9allocatorIS7_EEEERNS5_IiNS8_IiEEEEdiiNS_5Size_IiEESG_","__ZN2cv4meanERKNS_11_InputArrayES2_","__ZN2cv13redirectErrorEPFiiPKcS1_S1_iPvES2_PS2_","__ZNK2cv11_InputArray5totalEi","__ZN2cv6detail27AffineBestOf2NearestMatcher5matchERKNS0_13ImageFeaturesES4_RNS0_11MatchesInfoE","__ZNK2cv17FlannBasedMatcher5cloneEb","__ZNK2cv5aruco13ArucoDetector21getDetectorParametersEv","_cvGraphAddEdge","__ZN2cv3ocl22OpenCLExecutionContext6createERKNS0_7ContextERKNS0_6DeviceERKNS0_5QueueE","__ZN2cv5flann20CompositeIndexParamsC2EiiiN7cvflann20flann_centers_init_tEf","_std_VecMat_new_2","__ZN2cv5utils10BufferAreaC1Eb","__ZN2cv5utils10BufferArea9allocate_EPPvtmt","__ZN2cv6detail8tracking32TrackerStateEstimatorMILBoosting7max_idxERKNSt3__16vectorIfNS3_9allocatorIfEEEE","__ZN2cv8ximgproc12findEllipsesERKNS_11_InputArrayERKNS_12_OutputArrayEfff","__ZNK2cv3ocl6Kernel20compileWorkGroupSizeEPm","__ZN2cv9boxPointsENS_11RotatedRectERKNS_12_OutputArrayE","_cvPolarToCart","_cv_getRectSubPix","__ZN2cv3dnn14dnn4_v202506198NMSBoxesERKNSt3__16vectorINS_5Rect_IiEENS2_9allocatorIS5_EEEERKNS3_IfNS6_IfEEEEffRNS3_IiNS6_IiEEEEfi","_cvChangeSeqBlock","__ZN2cv22estimateRigidTransformERKNS_11_InputArrayES2_b","__ZN2cv18findFundamentalMatERKNS_11_InputArrayES2_RKNS_12_OutputArrayEidd","__ZN2cv3dnn14dnn4_v2025061912PaddingLayer6createERKNS1_11LayerParamsE","__ZNK2cv12MatAllocator6uploadEPNS_8UMatDataEPKviPKmS6_S6_S6_","_cvNormalize","_cvTreeToNodeSeq","__ZN2cv16UMatDataAutoLockC2EPNS_8UMatDataE","__ZN2cv5utils2fs8FileLock13unlock_sharedEv","__ZN2cv6detail27BundleAdjusterAffinePartial12calcJacobianERNS_3MatE","_cv_Mat_op_add_i32","_cv_detailEnhance","_std_VecKeyPoint_new_2","_cv_StereoSGBM_compute","_cv_SIFT_setNFeatures","_std_VecUChar_data","__ZN2cv7inRangeERKNS_11_InputArrayES2_S2_RKNS_12_OutputArrayE","__ZN2cv6detail8tracking14TrackerFeatureD0Ev","_cvReleaseSparseMat","_cv_VideoCapture_release","_cv_dnn_imagesFromBlob","__ZN2cv17distanceTransformERKNS_11_InputArrayERKNS_12_OutputArrayES5_iii","__ZN2cv6detail8tracking17TrackerSamplerCSC11sampleImageERKNS_3MatEiiiiffi","__ZNK2cv11_InputArray12getOGlBufferEv","__ZN2cv5aruco9GridBoardC1Ev","_cv_aruco_detectorParameters_get_polygonalApproxAccuracyRate","__ZNK2cv5aruco12CharucoBoard16getLegacyPatternEv","__ZN2cv3dnn14dnn4_v2025061920getAvailableBackendsEv","__ZN2cv3ocl6Kernel3setEiRKNS0_7Image2DE","__ZN2cv3dnn14dnn4_v202506193Net4Impl20getMemoryConsumptionERKNSt3__16vectorINS5_IiNS4_9allocatorIiEEEENS6_IS8_EEEERS8_RNS5_ImNS6_ImEEEESG_","_WebPDecodeBGR","__ZN2cv7grabCutERKNS_11_InputArrayERKNS_17_InputOutputArrayENS_5Rect_IiEES5_S5_ii","__ZN9CvLevMarqC1Eii14CvTermCriteriab","__ZNK2cv8ximgproc11EdgeDrawing6Params5writeERNS_11FileStorageE","__ZN2cv6detail8tracking14TrackerFeatureD2Ev","__ZN2cv5flann12SearchParamsC1Eifb","_std_VecChar_get","_cv_aruco_detectorParameters_get_aprilTagQuadDecimate","__ZNK2cv3ocl6Device21executionCapabilitiesEv","_cv_QRCodeDetector_detect","_cv_accumulateSquare","__ZNK2cv13HOGDescriptor16detectMultiScaleERKNS_11_InputArrayERNSt3__16vectorINS_5Rect_IiEENS4_9allocatorIS7_EEEEdNS_5Size_IiEESD_ddb","__ZN2cv3dnn14dnn4_v202506193Net4Impl10fuseLayersERKNSt3__16vectorINS1_6detail8LayerPinENS4_9allocatorIS7_EEEE","_cv_Mat_get_Vec6i","_cvHoughCircles","_cv_find4QuadCornerSubpix","__ZN2cv6detail8tracking11ClfMilBoostD2Ev","__ZNK2cv8FileNode5isIntEv","_std_VecVecPoint3i_shrink_to_fit","__ZNK2cv3Mat11checkVectorEiib","_cv_solvePnPRansac_1","__ZN9CvLevMarq4initEii14CvTermCriteriab","__ZN2cv3ipp19getIppErrorLocationEv","_std_VecKeyPoint_new","__ZNK2cv5aruco10Dictionary19generateImageMarkerEiiRKNS_12_OutputArrayEi","_cv_KalmanFilter_set_errorCovPost","_std_VecVecPoint3i_get_p","__ZN2cv5utils7logging8internal17writeLogMessageExENS1_8LogLevelEPKcS5_iS5_S5_","__ZN2cv3dnn14dnn4_v2025061914ScaleLayerInt86createERKNS1_11LayerParamsE","__ZN2cv3dnn14dnn4_v2025061923blobFromImageWithParamsERKNS_11_InputArrayERKNS_12_OutputArrayERKNS1_16Image2BlobParamsE","_WebPFree","__ZNK2cv3ocl13ProgramSource6sourceEv","_cv_FlannBasedMatcher_create","_cv_Mat_get_f32_3","_std_VecDMatch_clear","__ZN2cv3hal4sqrtEPKdPdi","__ZN2cv5flann20AutotunedIndexParamsC2Effff","__ZN2cv3dnn14dnn4_v202506197readNetERKNSt3__112basic_stringIcNS2_11char_traitsIcEENS2_9allocatorIcEEEERKNS2_6vectorIhNS6_IhEEEESF_","__ZN2cv5utils5trace7details6Region4Impl7releaseEv","__ZN2cv5aruco12CharucoBoardC1Ev","_std_VecI16_resize","__ZN2cv11VideoWriterC2ERKNSt3__112basic_stringIcNS1_11char_traitsIcEENS1_9allocatorIcEEEEidRKNS_5Size_IiEERKNS1_6vectorIiNS5_IiEEEE","__ZN2cv3MatC2ERKNSt3__16vectorIiNS1_9allocatorIiEEEEiRKNS_7Scalar_IdEE","__ZN2cv3logERKNS_10softdoubleE","__ZN2cv11VideoWriterC2ERKNSt3__112basic_stringIcNS1_11char_traitsIcEENS1_9allocatorIcEEEEidNS_5Size_IiEEb","__ZN2cv5flann12SearchParamsC1Eifbb","__ZN2cv9ExceptionC1EiRKNSt3__112basic_stringIcNS1_11char_traitsIcEENS1_9allocatorIcEEEES9_S9_i","_cvFindContours","_std_VecU16_new_1","_cv_invertAffineTransform","_cv_ximgproc_GraphSegmentation_setK","_cv_dnn_NMSBoxes_1","_std_VecU8_new","_std_VecPoint2f_data","__ZN2cv15convertScaleAbsERKNS_11_InputArrayERKNS_12_OutputArrayEdd","_std_VecDMatch_get","__ZN2cv8solveP3PERKNS_11_InputArrayES2_S2_S2_RKNS_12_OutputArrayES5_i","_std_VecU16_shrink_to_fit","__ZNK2cv11_InputArray5emptyEv","_cv_morphologyDefaultBorderValue","_std_VecVec4i_length","_cvCloneGraph","__ZN2cv7quality11QualitySSIM6createERKNS_11_InputArrayE","__ZN2cv3ocl5QueueD2Ev","__ZN2cv5aruco10DictionaryC1Ev","_cv_gemm","__ZNK2cv3ocl6Device16maxWorkItemSizesEPm","__ZN2cv8ximgproc11EdgeDrawing6Params4readERKNS_8FileNodeE","_cv_AgastFeatureDetector_setNonmaxSuppression","_cv_calcCovarMatrix","__ZN2cv3dnn14dnn4_v202506193Net4Impl18updateLayersShapesEv","_std_VecRect_get","__ZN2cv6formatEPKcz","_cvGetReal3D","__ZN2cv3dnn14dnn4_v202506193Net8addLayerERKNSt3__112basic_stringIcNS3_11char_traitsIcEENS3_9allocatorIcEEEESB_RKiRNS1_11LayerParamsE","__ZN2cv7compareERKNS_11_InputArrayES2_RKNS_12_OutputArrayEi","__ZN2cv8internal18WriteStructContextC1ERNS_11FileStorageERKNSt3__112basic_stringIcNS4_11char_traitsIcEENS4_9allocatorIcEEEEiSC_","__ZN2cv6detail8tracking23TrackerSamplerAlgorithmD1Ev","_cvSetImageROI","__ZN2cv6detail8tracking12TrackerModelD1Ev","__ZN2cv19QRCodeDetectorAruco18setArucoParametersERKNS_5aruco18DetectorParametersE","_std_VecMat_clear","__ZN2cv3dnn14dnn4_v202506193Net7connectENSt3__112basic_stringIcNS3_11char_traitsIcEENS3_9allocatorIcEEEES9_","_cv_img_hash_averageHash_compute","__ZN2cv11dnn_backend14NetworkBackendD2Ev","_cv_StereoBM_getSpeckleWindowSize","_cv_fillPoly","_cv_UMat_create_zeros","__ZN2cv5aruco10Dictionary14readDictionaryERKNS_8FileNodeE","_cvSeqInvert","__ZN2cv12reduceArgMinERKNS_11_InputArrayERKNS_12_OutputArrayEib","_std_VecU32_shrink_to_fit","__ZN2cvorERKNS_7Scalar_IdEERKNS_3MatE","_cv_img_hash_colorMomentHash_compare","__ZN2cv21GraphicalCodeDetectorC2Ev","__ZN2cv16FileNodeIteratorC1ERKS0_","__ZN2cv3dnn14dnn4_v202506193Net4Impl20getMemoryConsumptionEiRKNSt3__16vectorINS5_IiNS4_9allocatorIiEEEENS6_IS8_EEEERmSD_","__ZN2cv3maxERKNS_3MatEd","__ZN2cv3dnn14dnn4_v2025061910SplitLayer6createERKNS1_11LayerParamsE","_cv_FaceDetectorYN_detect","__ZN2cv5utils5trace7details6Region17LocationExtraData4initERKNS3_21LocationStaticStorageE","__ZNK2cv3ocl6Device8vendorIDEv","_cv_Mat_row","__ZN2cv5utils5trace7details6Region4ImplC2ERNS2_23TraceManagerThreadLocalEPS3_RS3_RKNS3_21LocationStaticStorageEx","_cv_getAffineTransform","__ZN2cv12VideoCapture7waitAnyERKNSt3__16vectorIS0_NS1_9allocatorIS0_EEEERNS2_IiNS3_IiEEEEx","__Z7cvRoundRKN2cv10softdoubleE","__ZN2cv3ocl8internal10isCLBufferERNS_4UMatE","__ZNK2cv3LDA4saveERKNSt3__112basic_stringIcNS1_11char_traitsIcEENS1_9allocatorIcEEEE","__ZNK2cv3ocl6Device12localMemSizeEv","__ZN2cv3dnn14dnn4_v2025061929getInferenceEngineBackendTypeEv","_std_VecU16_get","__ZN2cv30createLMeDSPointSetRegistratorERKNS_3PtrINS_19PointSetRegistrator8CallbackEEEidi","__ZN2cv20initWideAngleProjMapERKNS_11_InputArrayES2_NS_5Size_IiEEiiRKNS_12_OutputArrayES7_NS_14UndistortTypesEd","__ZN2cv11MahalanobisERKNS_11_InputArrayES2_S2_","__ZN2cv3ocl22OpenCLExecutionContext7releaseEv","__ZN2cv11FileStorage4Impl12writeCommentEPKcb","_cv_Mat_convertFp16","__ZN2cv3ocl7ContextaSERKS1_","__ZNK2cv11FileStorage4Impl12getStringOfsERKNSt3__112basic_stringIcNS2_11char_traitsIcEENS2_9allocatorIcEEEE","__ZN2cv3Mat6createEiii","__ZN2cvdvERKNS_3MatERKNS_7MatExprE","__ZN2cvdvERKNS_7MatExprES2_","_cv_BRISK_setOctaves","__ZN2cv4UMatC1ERKS0_PKNS_5RangeE","_cv_max","__ZN2cv22createMorphologyFilterEiiRKNS_11_InputArrayENS_6Point_IiEEiiRKNS_7Scalar_IdEE","_cv_SimpleBlobDetector_getBlobContours","_cv_minEnclosingCircle2f","__ZN2cv4swapERNS_3MatES1_","__ZNK2cv11FileStorage4Impl7getNameEm","__ZN2cv15spatialGradientERKNS_11_InputArrayERKNS_12_OutputArrayES5_ii","__ZN2cv3dnn14dnn4_v2025061910AtanhLayer6createERKNS1_11LayerParamsE","__ZN2cv13drawFrameAxesERKNS_17_InputOutputArrayERKNS_11_InputArrayES5_S5_S5_fi","_cvSobel","_cvDotProduct","_cv_aruco_detectorParameters_get_minCornerDistanceRate","__ZNK2cv3ocl6Device11addressBitsEv","__ZN2cv6detail12DpSeamFinder12computeCostsERKNS_3MatES4_NS_6Point_IiEES6_iRNS_4Mat_IfEES9_","__ZN2cv11FileStorage5writeERKNSt3__112basic_stringIcNS1_11char_traitsIcEENS1_9allocatorIcEEEERKNS1_6vectorIS7_NS5_IS7_EEEE","__ZNK2cv3ocl6Device17maxClockFrequencyEv","__ZN2cv6detail23SphericalPortraitWarper15detectResultRoiENS_5Size_IiEERNS_6Point_IiEES6_","__ZN2cv8Subdiv2D12initDelaunayENS_5Rect_IiEE","__ZN2cv6detail12AffineWarper9warpPointERKNS_6Point_IfEERKNS_11_InputArrayES8_","__ZN2cv6detail17stitchingLogLevelEv","_cv_HoughCircles_1","__ZN2cv6detail7Blender13createDefaultEib","_cv_SimpleBlobDetector_detect","_cv_Mat_set_f64_1","__ZN2cv5flann17KMeansIndexParamsC2EiiN7cvflann20flann_centers_init_tEf","__ZN2cv3dnn14dnn4_v2025061915readNetFromONNXERKNSt3__16vectorIhNS2_9allocatorIhEEEE","__ZN2cv3ocl12setUseOpenCLEb","__ZN2cv7MatExprC1ERKNS_3MatE","__ZN2cv3hal26warpPerspectiveBlocklineNNEPKdPsdddi","__ZN2cv12getThreadNumEv","__ZN2cv3ocl6Device10fromHandleEPv","__ZN2cv3dnn14dnn4_v2025061916readNetFromTorchERKNSt3__112basic_stringIcNS2_11char_traitsIcEENS2_9allocatorIcEEEEbb","_cv_getOptimalNewCameraMatrix","__ZNK2cv3ocl22OpenCLExecutionContext10getContextEv","_cv_Stitcher_set_compositingResol","__ZN2cv6detail8tracking32TrackerStateEstimatorMILBoostingD2Ev","_cv_reduceArgMax","__ZN2cv16TLSDataContainerD2Ev","__ZNK2cv22SimpleBlobDetectorImpl15getBlobContoursEv","__ZN2cv6detail11PlaneWarper17warpPointBackwardERKNS_6Point_IfEERKNS_11_InputArrayES8_S8_","__ZN2cv11FileStorage4Impl14endWriteStructEv","_cv_FaceDetectorYN_getInputSize","__ZNK2cv3ocl7Context24getOpenCLContextPropertyEi","__ZN2cv19imwriteWithMetadataERKNSt3__112basic_stringIcNS0_11char_traitsIcEENS0_9allocatorIcEEEERKNS_11_InputArrayERKNS0_6vectorIiNS4_IiEEEESB_SG_","_cv_GFTTDetector_create_2","_std_VecF64_extend","_cvInvert","__ZN2cv3Mat19setDefaultAllocatorEPNS_12MatAllocatorE","_WebPPictureCrop","__ZN2cv3dnn14dnn4_v202506193Net22readFromModelOptimizerERKNSt3__112basic_stringIcNS3_11char_traitsIcEENS3_9allocatorIcEEEESB_","_cv_UMat_channels","_WebPDecodeARGB","__ZN2cv10medianBlurERKNS_11_InputArrayERKNS_12_OutputArrayEi","_std_VecPoint3i_new_2","__ZN2cv3ocl12PlatformInfoC2EPv","__ZN2cv3hal11sepFilter2DEiiiPhmS1_miiiiiiS1_iS1_iiidi","_std_VecPoint2f_push_back","__ZN2cv9normalizeERKNS_9SparseMatERS0_di","__ZNK2cv11_InputArray4typeEi","__ZN2cv6detail11MatchesInfoC1Ev","__ZN2cv11FileStorage4Impl6rewindEv","__ZN2cv16videoio_registry37getStreamBufferedBackendPluginVersionENS_16VideoCaptureAPIsERiS2_","__ZN2cv11FileStorage4Impl15startNextStreamEv","__ZN2cv8FileNode5isSeqEi","__ZN2cv12sqrBoxFilterERKNS_11_InputArrayERKNS_12_OutputArrayEiNS_5Size_IiEENS_6Point_IiEEbi","__ZN2cv3dnn14dnn4_v2025061915readNetFromONNXEPKcm","_cvPow","__ZN2cv3hal6cmp32sEPKimS2_mPhmiiPv","__ZN2cv8Subdiv2D6VertexC2ENS_6Point_IfEEbi","_cvMixChannels","__ZN2cv5traceERKNS_11_InputArrayE","__ZN2cv7quality10QualityMSE7computeERKNS_11_InputArrayE","_cv_VideoWriter_open","__ZNK2cv16FileNodeIteratordeEv","__ZNK2cv3ocl5Queue3ptrEv","__ZN2cv13fitEllipseAMSERKNS_11_InputArrayE","_cv_Mat_op_div_u8","__ZNK2cv4UMat11checkVectorEiib","_cvMul","__ZN2cv3MatC1Eiii","_std_VecRect_free","__ZN2cv3dnn14dnn4_v202506195Layer8finalizeERKNS_11_InputArrayERKNS_12_OutputArrayE","__ZN2cv6detail19ChannelsCompensator11setMatGainsERNSt3__16vectorINS_3MatENS2_9allocatorIS4_EEEE","__ZN2cv3hal6max16sEPKsmS2_mPsmiiPv","__ZN2cv3ocl8PlatformC2Ev","__ZN2cv3ocl7Context11UserContextD1Ev","__ZN2cv5utils14getBinLocationERNSt3__112basic_stringIcNS1_11char_traitsIcEENS1_9allocatorIcEEEE","_cvWarpPerspective","_cv_ORB_setMaxFeatures","_cvNextTreeNode","_std_VecPoint3i_reserve","_cv_Mat_step","__ZNK2cv3ocl22OpenCLExecutionContext8getQueueEv","_cv_Mat_op_mul_mat","_cv_Subdiv2D_getTriangleList","_cvCmp","__ZN7cvflann19flann_distance_typeEv","__ZN2cv14fillConvexPolyERKNS_17_InputOutputArrayERKNS_11_InputArrayERKNS_7Scalar_IdEEii","__ZN2cv16PyRotationWarperC1ENSt3__112basic_stringIcNS1_11char_traitsIcEENS1_9allocatorIcEEEEf","__ZN2cv3ocl7ProgramC2EOS1_","__ZN2cv8Subdiv2D6VertexC2Ev","__ZN2cvneEdRKNS_3MatE","_cv_KalmanFilter_predict","__ZNK2cv10AsyncArray5validEv","__ZN2cv15NAryMatIteratorC2EPPKNS_3MatEPS1_i","_cv_StereoSGBM_create","__ZNK2cv5aruco12CharucoBoard15getSquareLengthEv","__ZN2cv4SIFT6createEiidddib","__ZN2cv12drawContoursERKNS_17_InputOutputArrayERKNS_11_InputArrayEiRKNS_7Scalar_IdEEiiS5_iNS_6Point_IiEE","__ZN2cv17getGaussianKernelEidi","_std_VecVecChar_set","__ZN2cv17imdecodeanimationERKNS_11_InputArrayERNS_9AnimationEii","__ZNK2cv11FileStorage4Impl13Base64Decoder6getPtrEv","_cv_undistortPoints","_cvDiv","__ZNK2cv5aruco12CharucoBoard23getNearestMarkerCornersEv","_cv_dnn_Net_getUnconnectedOutLayers","__ZN2cv3dnn14dnn4_v202506193Net7forwardERKNS_12_OutputArrayERKNSt3__112basic_stringIcNS6_11char_traitsIcEENS6_9allocatorIcEEEE","__ZNK2cv11_InputArray12getMatVectorERNSt3__16vectorINS_3MatENS1_9allocatorIS3_EEEE","_cv_RQDecomp3x3","__ZN2cv12AsyncPromise12setExceptionERKNS_9ExceptionE","__Z17cvCreateSparseMatRKN2cv9SparseMatE","__ZN2cv5utils5trace7details12TraceManagerC2Ev","__ZN2cv3dnn14dnn4_v2025061910SliceLayer6createERKNS1_11LayerParamsE","__ZN2cv8Subdiv2D19getVoronoiFacetListERKNSt3__16vectorIiNS1_9allocatorIiEEEERNS2_INS2_INS_6Point_IfEENS3_IS9_EEEENS3_ISB_EEEERSB_","__ZN2cv9Exception13formatMessageEv","__ZNK2cv12_OutputArray15getOGlBufferRefEv","_cv_StereoBM_create","_cvPointPolygonTest","__ZN2cv16videoio_registry17getWriterBackendsEv","__ZN2cv12VideoCaptureC1ERKNSt3__112basic_stringIcNS1_11char_traitsIcEENS1_9allocatorIcEEEEiRKNS1_6vectorIiNS5_IiEEEE","__ZN2cv22cornerEigenValsAndVecsERKNS_11_InputArrayERKNS_12_OutputArrayEiii","_std_VecF64_resize","_WebPPictureAlloc","__ZN2cv15findCirclesGridERKNS_11_InputArrayENS_5Size_IiEERKNS_12_OutputArrayEiRKNS_3PtrINS_9Feature2DEEERKNS_27CirclesGridFinderParametersE","_cv_KalmanFilter_get_errorCovPre","_std_VecRect_reserve","_WebPMuxGetChunk","__ZN2cv3dnn14dnn4_v202506199CropLayer6createERKNS1_11LayerParamsE","__ZN2cv24calcOpticalFlowFarnebackERKNS_11_InputArrayES2_RKNS_17_InputOutputArrayEdiiiidi","__ZN2cv3ocl7Image2D17isFormatSupportedEiib","__ZN2cv11FileStorage4Impl13Base64Decoder9getUInt16Ev","__Z7cvMatNDRKN2cv3MatE","__ZN2cv3ocl13ProgramSourceC1ERKNSt3__112basic_stringIcNS2_11char_traitsIcEENS2_9allocatorIcEEEE","__ZN2cv3dnn14dnn4_v202506193Net4Impl28getUnconnectedOutLayersNamesEv","_WebPEncode","__ZNK2cv3PCA11backProjectERKNS_11_InputArrayE","__ZN2cv8UMatDataD1Ev","__ZN2cveoERKNS_7Scalar_IdEERKNS_3MatE","_cv_fisheye_calibrate","_cv_ORB_getScaleFactor","__ZN2cv3ocl14convertTypeStrEiiiPc","__ZN2cv3dnn14dnn4_v202506193Net4ImplC2Ev","__ZNK2cv9SparseMat4hashEiii","__ZN2cv17AVIWriteContainerD1Ev","_std_VecChar_data","__ZN2cv8img_hash18RadialVarianceHash13getPixPerLineERKNS_3MatE","_WebPCopyPlane","__ZNK2cv14DefaultDeleterI11CvSparseMatEclEPS1_","__ZN2cv3SVD7computeERKNS_11_InputArrayERKNS_12_OutputArrayEi","_std_VecVecPoint3i_extend","__ZN2cv16AVIReadContainer13parseHdrlListENS_6CodecsE","__ZN2cv17thresholdWithMaskERKNS_11_InputArrayERKNS_17_InputOutputArrayES2_ddi","__ZN2cv6detail11MatchesInfoC2Ev","__ZN2cv9minMaxLocERKNS_11_InputArrayEPdS3_PNS_6Point_IiEES6_S2_","__ZN2cv8Subdiv2D12connectEdgesEii","__ZN2cv13wechat_qrcode12WeChatQRCodeC2ERKNSt3__112basic_stringIcNS2_11char_traitsIcEENS2_9allocatorIcEEEESA_SA_SA_","__ZN2cv3MataSERKNS_7Scalar_IdEE","__ZN2cv6theRNGEv","_cv_UMat_create_3","_cvSeqRemove","__ZN2cv8img_hash15colorMomentHashERKNS_11_InputArrayERKNS_12_OutputArrayE","__ZN2cv5aruco10DictionaryC1ERKNS_3MatEii","__ZN2cv11getTextSizeERKNSt3__112basic_stringIcNS0_11char_traitsIcEENS0_9allocatorIcEEEEidiPi","__ZN2cv3hal9magnitudeEPKdS2_Pdi","__ZN2cv4UMataSEOS0_","__ZN2cv3ocl8PlatformC1EOS1_","__ZN2cv14seqInsertSliceEP5CvSeqiPKv","__ZN2cv3ocl7ContextD1Ev","_cvCompareHist","_cvCvtSeqToArray","_cv_SIFT_close","__ZN2cv11VideoWriterlsERKNS_4UMatE","__ZN2cv5MatOpD2Ev","_cv_Subdiv2D_insertVec","_cv_RNG_gaussian","_std_VecF32_length","__ZNK2cv11_InputArray4colsEi","__ZN2cv3dnn14dnn4_v2025061915NMSBoxesBatchedERKNSt3__16vectorINS_5Rect_IiEENS2_9allocatorIS5_EEEERKNS3_IfNS6_IfEEEERKNS3_IiNS6_IiEEEEffRSG_fi","__ZN2cv3hal7normL1_EPKhS2_i","_cv_SimpleBlobDetector_setParams","_std_VecPoint3f_resize","_std_VecI64_length","__ZN2cv5flann11IndexParams6setIntERKNSt3__112basic_stringIcNS2_11char_traitsIcEENS2_9allocatorIcEEEEi","_std_VecRect_new_2","_cv_aruco_Dictionary_set_bytesList","__ZTv0_n72_NK2cv4KAZE14getDefaultNameEv","__ZN2cv3ocl7Program4readERKNSt3__112basic_stringIcNS2_11char_traitsIcEENS2_9allocatorIcEEEESA_","__ZN2cvmiERKNS_7MatExprERKNS_3MatE","_cv_dnn_getBlobChannel","__ZN2cv5flann33HierarchicalClusteringIndexParamsC1EiN7cvflann20flann_centers_init_tEii","_cvCreateFileCapture","_cv_StereoSGBM_setUniquenessRatio","__ZN2cv5CannyERKNS_11_InputArrayES2_RKNS_12_OutputArrayEddb","__ZN2cv9patchNaNsERKNS_17_InputOutputArrayEd","_cv_transform","__ZN2cv15undistortPointsERKNS_11_InputArrayERKNS_12_OutputArrayES2_S2_S2_S2_","__ZN2cv5utils2fs8FileLockC1EPKc","__ZN2cv3PCAC1ERKNS_11_InputArrayES3_ii","__ZN2cv8Subdiv2DC2Ev","__ZN2cv9Feature2D7computeERKNS_11_InputArrayERNSt3__16vectorINS_8KeyPointENS4_9allocatorIS6_EEEERKNS_12_OutputArrayE","_cv_Mat_op_div_f64","__ZNK2cv5aruco10Dictionary8identifyERKNS_3MatERiS5_d","_cv_Mat_get_f32_1","_cv_ximgproc_RFFeatureGetter_clear","__ZN2cv6rotateERKNS_11_InputArrayERKNS_12_OutputArrayEi","__ZN2cv8KeyPoint7convertERKNSt3__16vectorIS0_NS1_9allocatorIS0_EEEERNS2_INS_6Point_IfEENS3_IS9_EEEERKNS2_IiNS3_IiEEEE","_cvReleaseHist","__ZN2cv3hal6resizeEiPKhmiiPhmiiddi","_std_VecVecPoint_shrink_to_fit","__ZN2cv4UMatC1EiiiRKNS_7Scalar_IdEENS_14UMatUsageFlagsE","_cv_Mat_set_Vec3i","__ZN2cv7fisheye13stereoRectifyERKNS_11_InputArrayES3_S3_S3_RKNS_5Size_IiEES3_S3_RKNS_12_OutputArrayESA_SA_SA_SA_iS7_dd","__ZN2cv3dnn14dnn4_v202506193Net8addLayerERKNSt3__112basic_stringIcNS3_11char_traitsIcEENS3_9allocatorIcEEEESB_RNS1_11LayerParamsE","__ZN2cv10AsyncArrayaSERKS0_","_cvReadChainPoint","__ZN2cv3MatC2ENS_5Size_IiEEiRKNS_7Scalar_IdEE","__ZN2cv9SparseMat10removeNodeEmmm","__ZN2cv3dnn14dnn4_v2025061918readNetFromDarknetERKNSt3__16vectorIhNS2_9allocatorIhEEEES8_","_std_VecVecChar_resize","_cvCartToPolar","__ZN2cv11FileStorage19releaseAndGetStringEv","__ZNK2cv5aruco12CharucoBoard17getChessboardSizeEv","__ZN2cv6detail16MultiBandBlenderC2Eiii","__ZN2cvplERKNS_7MatExprERKNS_7Scalar_IdEE","_cvXorS","_WebPPictureImportBGRX","__ZN2cv9SparseMat5eraseEPKiPm","_std_VecVecPoint_get_p","__ZN2cv22SimpleBlobDetectorImpl4readERKNS_8FileNodeE","__ZN2cv6detail8tracking17TrackerSamplerCSCC1ERKNS2_6ParamsE","_cv_aruco_detectorParameters_get_detectInvertedMarker","__ZNK2cv3ocl6Device24preferredVectorWidthLongEv","__ZN2cv8imdecodeERKNS_11_InputArrayEiPNS_3MatE","__ZN2cv3hal19cvtTwoPlaneYUVtoBGREPKhS2_mPhmiiibiNS_13AlgorithmHintE","_cv_erode_1","__ZNK2cv3dnn14dnn4_v202506193Net4Impl10getLayerIdERNS1_9DictValueE","__ZN2cv3hal7split8uEPKhPPhii","_cv_fastNlMeansDenoisingColored_1","_cv_flann_IndexParams_getString","_cv_xobjdetect_WBDetector_close","__ZN2cv3hal10absdiff16sEPKsmS2_mPsmiiPv","__ZN2cv4UMatC2ERKS0_RKNS_5Rect_IiEE","__ZNK2cv15ImageCollection4Impl12currentIndexEv","_cv_Mat_op_add_mat","__ZNK2cv3ocl7Program6sourceEv","_cvCheckTermCriteria","__ZN2cv5utils5trace7details8traceArgERKNS2_8TraceArgEx","__ZN2cv16videoio_registry11getBackendsEv","_cv_AKAZE_getDefaultName","__ZN2cv7quality11QualityGMSD9_mat_dataC1ERKNS_11_InputArrayE","_cv_aruco_detectorParameters_set_adaptiveThreshWinSizeMin","__ZN2cv3dnn14dnn4_v202506195Layer16inputNameToIndexENSt3__112basic_stringIcNS3_11char_traitsIcEENS3_9allocatorIcEEEE","__ZNK2cv3ocl13ProgramSource4hashEv","_std_VecVecPoint2f_clear","_cv_Mat_get_Vec6f","__ZN2cv8ximgproc19PeiLinNormalizationERKNS_11_InputArrayE","__ZN2cv15KeyPointsFilter16runByImageBorderERNSt3__16vectorINS_8KeyPointENS1_9allocatorIS3_EEEENS_5Size_IiEEi","__ZN2cv3dnn14dnn4_v202506195Layer8initCannERKNSt3__16vectorINS_3PtrINS1_14BackendWrapperEEENS3_9allocatorIS7_EEEESC_RKNS4_INS5_INS1_11BackendNodeEEENS8_ISE_EEEE","_std_VecU32_push_back","_WebPEncodeRGBA","__ZN2cv15NAryMatIteratorppEv","__ZN2cv3dnn14dnn4_v202506199SeluLayer6createERKNS1_11LayerParamsE","_cvGraphRemoveEdgeByPtr","__ZN2cv3LDA11reconstructERKNS_11_InputArrayE","_std_VecVecPoint3f_shrink_to_fit","_cv_ORB_close","_cv_findContours","__ZN2cv13detailEnhanceERKNS_11_InputArrayERKNS_12_OutputArrayEff","__ZN2cv3ocl7ProgramD2Ev","__ZN2cv8img_hash11ImgHashBaseD0Ev","_cv_ximgproc_EdgeBoxes_setMinBoxArea","__ZN2cv3hal14addWeighted16sEPKsmS2_mPsmiiPv","__ZN2cv9floodFillERKNS_17_InputOutputArrayES2_NS_6Point_IiEENS_7Scalar_IdEEPNS_5Rect_IiEES6_S6_i","_cv_UMat_diag","_cv_kmeans_points","_cv_HoughCircles","_cv_undistortImagePoints","_cv_normalize","__ZN2cv11FileStorage5writeERKNSt3__112basic_stringIcNS1_11char_traitsIcEENS1_9allocatorIcEEEEd","__ZN2cv14QRCodeDetector12decodeCurvedERKNS_11_InputArrayES3_RKNS_12_OutputArrayE","__ZN2cv3MatC2EOS0_","__ZN2cv11FileStorage4Impl12setBufferPtrEPc","__ZN2cv15getDerivKernelsERKNS_12_OutputArrayES2_iiibi","__ZN2cv3dnn14dnn4_v202506193Net4Impl24validateBackendAndTargetEv","__ZN2cv11RNG_MT19937clEv","__ZN2cv6detail12DpSeamFinder11getSeamTipsEiiRNS_6Point_IiEES4_","_WebPEncodeBGR","_cv_GFTTDetector_setHarrisDetector","__ZN2cv10bitwise_orERKNS_11_InputArrayES2_RKNS_12_OutputArrayES2_","_cv_GFTTDetector_getQualityLevel","_cv_aruco_detectorParameters_get_cornerRefinementMaxIterations","__ZN2cv4readERKNS_8FileNodeERNS_8KeyPointERKS3_","__ZN2cv3ocl13ProgramSource8fromSPIRERKNSt3__112basic_stringIcNS2_11char_traitsIcEENS2_9allocatorIcEEEESA_PKhmSA_","__ZNK2cv3Mat7reshapeEiRKNSt3__16vectorIiNS1_9allocatorIiEEEE","__ZN2cv5utils2fs10remove_allERKNSt3__112basic_stringIcNS2_11char_traitsIcEENS2_9allocatorIcEEEE","__ZNK2cv17FlannBasedMatcher15isMaskSupportedEv","__ZNK2cv5aruco5Board13getDictionaryEv","__ZN2cv3dnn14dnn4_v202506199SignLayer6createERKNS1_11LayerParamsE","_cv_Subdiv2D_close","__ZN2cv8FileNode5isMapEi","_cvPtrND","_std_VecDMatch_set","__ZN2cv2ml9ParamGridC1Ev","__ZN2cv6detail17check_failed_autoEddRKNS0_12CheckContextE","_cv_polylines","__ZN2cv4UMatC2ERKS0_RKNSt3__16vectorINS_5RangeENS3_9allocatorIS5_EEEE","__ZN2cv8Stitcher20estimateCameraParamsEv","__ZN2cv9ExceptionD2Ev","__ZN2cv3dnn14dnn4_v2025061925readNetFromModelOptimizerEPKhmS3_m","__ZN2cv3dftERKNS_11_InputArrayERKNS_12_OutputArrayEii","_cv_Stitcher_get_registrationResol","_cvQueryFrame","_cvNulDevReport","__ZN2cv16FileNodeIteratoraSERKS0_","_std_VecU16_clear","_cv_BackgroundSubtractorKNN_apply","_cv_eigenNonSymmetric","__ZN2cv3Mat4onesENS_5Size_IiEEi","__ZN2cv6detail11PlaneWarper9warpPointERKNS_6Point_IfEERKNS_11_InputArrayES8_","__ZN2cv9SparseMat7releaseEv","_cv_wechat_qrcode_WeChatQRCode_create_1","__ZN2cv13wechat_qrcode12WeChatQRCodeC1ERKNSt3__112basic_stringIcNS2_11char_traitsIcEENS2_9allocatorIcEEEESA_SA_SA_","__ZN2cvgtEdRKNS_3MatE","_cvClearND","_cv_StereoSGBM_setMode","__ZN2cv3hal6sub16uEPKtmS2_mPtmiiPv","__ZNK2cv3ocl7Program9getPrefixEv","_cv_UMat_step","__ZN2cv10PCAComputeERKNS_11_InputArrayERKNS_17_InputOutputArrayERKNS_12_OutputArrayEi","__ZN2cv3ipp15useIPP_NotExactEv","__ZN2cv3dnn14dnn4_v2025061917InnerProductLayer6createERKNS1_11LayerParamsE","_std_VecDMatch_new","__ZN2cv3hal14addWeighted64fEPKdmS2_mPdmiiPv","_cv_BackgroundSubtractorMOG2_create","_cv_applyColorMap_1","__ZN2cv12KalmanFilterC2Eiiii","__ZN2cv3dnn14dnn4_v202506198SinLayer6createERKNS1_11LayerParamsE","__ZN2cv9normalizeERKNS_11_InputArrayERKNS_17_InputOutputArrayEddiiS2_","__ZNK2cv5MatOp6divideEdRKNS_7MatExprERS1_","__ZN2cv3dnn14dnn4_v2025061918readNetFromDarknetEPKcmS3_m","__ZN2cv6detail15GainCompensator11getMatGainsERNSt3__16vectorINS_3MatENS2_9allocatorIS4_EEEE","__ZN2cv9SparseMat3HdrC1EiPKii","_cvScaleAdd","_cv_distanceTransform","__ZN2cv15undistortPointsERKNS_11_InputArrayERKNS_12_OutputArrayES2_S2_S2_S2_NS_12TermCriteriaE","__ZN2cv6detail8tracking12TrackerModel11modelUpdateEv","__ZN2cv16MatConstIterator4seekElb","_cv_Mat_mul","__ZN2cv14QRCodeDetector22setUseAlignmentMarkersEb","__ZN2cv15calcCovarMatrixEPKNS_3MatEiRS0_S3_ii","__ZN2cvdvERKNS_7MatExprERKNS_3MatE","__ZN2cv11VideoWriterD0Ev","__ZN2cv4sqrtERKNS_9softfloatE","__ZN2cv3hal7gemm64fEPKdmS2_mdS2_mdPdmiiii","__ZN2cv3dnn14dnn4_v2025061920DetectionOutputLayer6createERKNS1_11LayerParamsE","__ZN2cv7fitLineERKNS_11_InputArrayERKNS_12_OutputArrayEiddd","__ZN2cvmlEdRKNS_3MatE","__ZN2cv3hal11cvtBGRtoLabEPKhmPhmiiiibbb","_cv_dnn_Net_getUnconnectedOutLayersNames","__ZN2cv11FileStorageD1Ev","__ZNK2cv5flann11IndexParams6getIntERKNSt3__112basic_stringIcNS2_11char_traitsIcEENS2_9allocatorIcEEEEi","__ZN2cv5errorEiRKNSt3__112basic_stringIcNS0_11char_traitsIcEENS0_9allocatorIcEEEEPKcSA_i","_cv_BackgroundSubtractorMOG2_apply","_cv_AgastFeatureDetector_getType","__ZN2cvleEdRKNS_3MatE","__Z9cvRound64RKN2cv10softdoubleE","__ZN2cv3ocl8PlatformC2ERKS1_","__ZNK2cv3dnn14dnn4_v202506195Layer17getScaleZeropointERfRi","_std_VecUChar_new_2","__ZN2cv7imwriteERKNSt3__112basic_stringIcNS0_11char_traitsIcEENS0_9allocatorIcEEEERKNS_11_InputArrayERKNS0_6vectorIiNS4_IiEEEE","__ZNK2cv6plugin4impl10DynamicLib7getNameEv","_std_VecU16_length","__ZN2cv15ImageCollection7getImplEv","__ZN2cv23initUndistortRectifyMapERKNS_11_InputArrayES2_S2_S2_NS_5Size_IiEEiRKNS_12_OutputArrayES7_","__ZN2cv3dnn14dnn4_v2025061914blobFromImagesERKNS_11_InputArrayERKNS_12_OutputArrayEdNS_5Size_IiEERKNS_7Scalar_IdEEbbi","__Z18LogCallbackExProxyN2cv5utils7logging8LogLevelEPKcS4_iS4_S4_","__ZN2cv3hal23cvtRGBAtoMultipliedRGBAEPKhmPhmii","__ZN2cv3ocl7haveSVMEv","__ZN2cv9SparseMat3ptrEiiibPm","_cvGetCaptureProperty","__ZN2cv7pyrDownERKNS_11_InputArrayERKNS_12_OutputArrayERKNS_5Size_IiEEi","__ZN2cv16videoio_registry17getCameraBackendsEv","__ZNK2cv5flann5Index4saveERKNSt3__112basic_stringIcNS2_11char_traitsIcEENS2_9allocatorIcEEEE","__ZN2cv4idctERKNS_11_InputArrayERKNS_12_OutputArrayEi","_cv_aruco_detectorParameters_set_markerBorderBits","_std_VecU64_free","_cvWatershed","_SharpYuvComputeConversionMatrix","__ZN2cv21drawChessboardCornersERKNS_17_InputOutputArrayENS_5Size_IiEERKNS_11_InputArrayEb","__ZN2cv3ocl6Kernel7runTaskEbRKNS0_5QueueE","_cv_Mat_set_i16_2","_cv_eigen","__ZN2cv18imreadWithMetadataERKNSt3__112basic_stringIcNS0_11char_traitsIcEENS0_9allocatorIcEEEERNS0_6vectorIiNS4_IiEEEERKNS_12_OutputArrayEi","__ZN2cv15extractImageCOIEPKvRKNS_12_OutputArrayEi","__ZNK2cv13HOGDescriptor4saveERKNSt3__112basic_stringIcNS1_11char_traitsIcEENS1_9allocatorIcEEEES9_","__ZN2cv22SimpleBlobDetectorImplC2ERKNS_18SimpleBlobDetector6ParamsE","__ZN2cv3dnn14dnn4_v2025061914MaxUnpoolLayer6createERKNS1_11LayerParamsE","__ZN2cv15scalarToRawDataERKNS_7Scalar_IdEEPvii","__ZN2cv8FileNodeC2EPNS_11FileStorage4ImplEmm","__ZN2cv3ORB6createEifiiiiNS0_9ScoreTypeEii","__ZN2cv3ocl7Context11UserContextD0Ev","__ZN2cv6detail21BestOf2NearestMatcher5matchERKNS0_13ImageFeaturesES4_RNS0_11MatchesInfoE","_cv_dnn_blobFromImage","__ZN2cv3hal10absdiff64fEPKdmS2_mPdmiiPv","_cv_Mat_type","__ZN2cv6detail13estimateFocalERKNSt3__16vectorINS0_13ImageFeaturesENS1_9allocatorIS3_EEEERKNS2_INS0_11MatchesInfoENS4_IS9_EEEERNS2_IdNS4_IdEEEE","__ZN2cv5utils5trace7details8traceArgERKNS2_8TraceArgEi","_cv_dnn_Layer_outputNameToIndex","__ZNK2cv3ocl6Device16printfBufferSizeEv","_cv_getOptimalDFTSize","__ZN2cv3Mat3eyeEiii","__ZN2cv13depthToStringEi","__ZN2cv6detail15SphericalWarper4warpERKNS_11_InputArrayES4_S4_iiRKNS_12_OutputArrayE","_cvGetQuadrangleSubPix","_std_VecPoint2f_get","_cv_Mat_get_Vec3d","__Z7cvRoundRKN2cv9softfloatE","__ZN2cv16AVIReadContainer9readFrameENSt3__116__deque_iteratorINS1_4pairIyjEEPS4_RS4_PS5_lLl256EEE","__ZN2cv3hal8merge32sEPPKiPiii","__ZN2cv6detail17check_failed_autoEffRKNS0_12CheckContextE","__ZN2cv16UMatDataAutoLockC1EPNS_8UMatDataE","__ZN2cv11recoverPoseERKNS_11_InputArrayES2_S2_RKNS_12_OutputArrayES5_dNS_6Point_IdEERKNS_17_InputOutputArrayE","_cv_Mat_op_div_f32","__ZN2cv17AVIWriteContainer17writeStreamHeaderENS_6CodecsE","__ZN2cv3ipp12getIppStatusEv","__ZN2cv20fastNlMeansDenoisingERKNS_11_InputArrayERKNS_12_OutputArrayEfii","__ZN2cv3ocl7Context4Impl7getProgERKNS0_13ProgramSourceERKNSt3__112basic_stringIcNS6_11char_traitsIcEENS6_9allocatorIcEEEERSC_","_std_VecRotatedRect_set","__ZN2cv3dnn14dnn4_v202506193Net7connectEiiii","__ZN2cv8Stitcher6createENS0_4ModeE","_cvCreateGraphScanner","__ZN2cv11FileStorage4Impl6strtodEPcPS2_","_cv_Mat_op_div_u16","_cv_colorChange","_cvPerspectiveTransform","_cv_Mat_mean_1","__ZN2cv3ocl5Queue6finishEv","__ZN2cv4UMat6createEiiiNS_14UMatUsageFlagsE","_cv_ximgproc_EdgeDrawing_getGradientImage","_cv_triangulatePoints","_cv_SIFT_setEdgeThreshold","__ZN2cv11FileStorageD0Ev","_cv_fastNlMeansDenoisingColoredMulti","_cv_aruco_Dictionary_set_markerSize","_std_VecI32_data","__ZN2cv15ImageCollection8iteratordeEv","__ZN2cv16UMatDataAutoLockD1Ev","_std_VecUChar_extend","_cv_createAlignMTB_1","__ZN2cv12findContoursERKNS_11_InputArrayERKNS_12_OutputArrayEiiNS_6Point_IiEE","_cvArcLength","_cvGetImageROI","__ZNK2cv7MatExpr3dotERKNS_3MatE","__ZN2cvcoERKNS_3MatE","_cvPreCornerDetect","_cv_fastNlMeansDenoisingColoredMulti_1","__ZN2cv4UMatC1ERKS0_RKNSt3__16vectorINS_5RangeENS3_9allocatorIS5_EEEE","_cvReleaseImageHeader","__ZN2cv3dnn14dnn4_v202506195Layer3runERKNSt3__16vectorINS_3MatENS3_9allocatorIS5_EEEERS8_SB_","_cv_flann_IndexParams_setFloat","_cv_fisheye_undistortPoints","_setLogCallback","_cv_sampsonDistance","_cv_Mat_set_u16_1","__ZN2cv16TLSDataContainer7cleanupEv","_std_VecVec6f_new_2","_WebPPictureARGBToYUVA","_std_VecVecPoint3i_push_back","__ZNK2cv12_OutputArray5setToERKNS_11_InputArrayES3_","__ZN2cv11RNG_MT19937clEj","__ZN2cv12VideoCaptureC2ERKNSt3__112basic_stringIcNS1_11char_traitsIcEENS1_9allocatorIcEEEEi","__ZN2cv6detail8tracking17TrackerFeatureSetD2Ev","_std_VecVec4i_push_back","_cv_ximgproc_EdgeBoxes_getAlpha","_std_VecRect_resize","__ZN2cv4UMatC1ENS_14UMatUsageFlagsE","__ZN2cv3dnn14dnn4_v2025061912EltwiseLayer6createERKNS1_11LayerParamsE","__ZN2cv6detail12DpSeamFinder7processERKNS_3MatES4_NS_6Point_IiEES6_RS2_S7_","__ZN2cv11dnn_backend14NetworkBackendD0Ev","__ZN2cv17DescriptorMatcher3addERKNS_11_InputArrayE","__ZN2cv6detail27BundleAdjusterAffinePartial24setUpInitialCameraParamsERKNSt3__16vectorINS0_12CameraParamsENS2_9allocatorIS4_EEEE","__ZN2cv3LUTERKNS_11_InputArrayES2_RKNS_12_OutputArrayE","_cv_recoverPose","__ZN2cv6detail9resultRoiERKNSt3__16vectorINS_6Point_IiEENS1_9allocatorIS4_EEEERKNS2_INS_5Size_IiEENS5_ISB_EEEE","_cv_ximgproc_anisotropicDiffusion","_std_VecVecPoint3i_get","__ZN2cv5erodeERKNS_11_InputArrayERKNS_12_OutputArrayES2_NS_6Point_IiEEiiRKNS_7Scalar_IdEE","_std_VecUChar_get","_std_VecVec4f_reserve","__ZNK2cv3ocl6Device22nativeVectorWidthShortEv","_cv_Mat_op_mul_f32","__ZN2cv8ximgproc2rl14createRLEImageERKNSt3__16vectorINS_7Point3_IiEENS2_9allocatorIS5_EEEERKNS_12_OutputArrayENS_5Size_IiEE","__ZN2cv3hal5min8uEPKhmS2_mPhmiiPv","__ZN2cv5mergeERKNS_11_InputArrayERKNS_12_OutputArrayE","__ZN2cv12morphologyExERKNS_11_InputArrayERKNS_12_OutputArrayEiS2_NS_6Point_IiEEiiRKNS_7Scalar_IdEE","__ZN2cv15ImageCollection8iteratorC2EPS0_","__ZN2cv3hal7invSqrtEPKdPdi","_cvCircle","__ZN2cv17DescriptorMatcherD2Ev","_cv_GFTTDetector_create_1","__ZN2cv16PyRotationWarper9buildMapsENS_5Size_IiEERKNS_11_InputArrayES5_RKNS_12_OutputArrayES8_","__ZN2cv3hal11cvtBGRtoBGREPKhmPhmiiiiib","__ZN2cv3ocl13ProgramSourceaSEOS1_","__ZN2cv6detail18GraphCutSeamFinderD1Ev","__ZNK2cv5MatOp8subtractERKNS_7MatExprES3_RS1_","__ZNK2cv3ocl6Device24profilingTimerResolutionEv","_std_VecPoint_reserve","__ZN2cv13seamlessCloneERKNS_11_InputArrayES2_S2_NS_6Point_IiEERKNS_12_OutputArrayEi","_std_VecI8_free","_WebPMuxGetFeatures","__ZN2cv21BaseCascadeClassifierD2Ev","__ZN2cv4UMatC2ENS_5Size_IiEEiRKNS_7Scalar_IdEENS_14UMatUsageFlagsE","_cvGetTextSize","_cv_Mat_set_i32_1","_cv_BackgroundSubtractorMOG2_close","__ZN2cv12AsyncPromiseC2Ev","__ZN2cv11demosaicingERKNS_11_InputArrayERKNS_12_OutputArrayEii","__ZN2cv11RNG_MT199374seedEj","_cv_aruco_Dictionary_close","__ZNK2cv6detail8tracking12TrackerModel24getTrackerStateEstimatorEv","__ZN2cv11VideoWriterC2Ev","__ZN2cvmiERKNS_7MatExprES2_","_cvConvertScale","__ZNK2cv17DescriptorMatcher20DescriptorCollection13getDescriptorEii","__ZN2cv11FileStorage4ImplC2EPS0_","__ZN2cv28connectedComponentsWithStatsERKNS_11_InputArrayERKNS_12_OutputArrayES5_S5_ii","__ZN2cv9terminateEiRKNSt3__112basic_stringIcNS0_11char_traitsIcEENS0_9allocatorIcEEEEPKcSA_i","_cvDFT","_cv_morphologyEx","__ZNK2cv5MatOp6invertERKNS_7MatExprEiRS1_","__ZN2cv16FileNodeIteratorC2ERKNS_8FileNodeEb","__ZNK2cv17FlannBasedMatcher5writeERNS_11FileStorageE","__ZN2cv3hal19cvtOnePlaneBGRtoYUVEPKhmPhmiiibiiNS_13AlgorithmHintE","__ZN2cv3ocl6DeviceC2EPv","_cv_Mat_create_12","__ZN2cv14FaceDetectorYN6createERKNSt3__112basic_stringIcNS1_11char_traitsIcEENS1_9allocatorIcEEEES9_RKNS_5Size_IiEEffiii","__ZNK2cv3dnn14dnn4_v202506193Net10getLayerIdERKNSt3__112basic_stringIcNS3_11char_traitsIcEENS3_9allocatorIcEEEE","__ZN2cv15KeyPointsFilter22removeDuplicatedSortedERNSt3__16vectorINS_8KeyPointENS1_9allocatorIS3_EEEE","__ZN2cv3dnn14dnn4_v2025061925readNetFromModelOptimizerERKNSt3__112basic_stringIcNS2_11char_traitsIcEENS2_9allocatorIcEEEESA_","_cvGet1D","__ZN2cv5eigenERKNS_11_InputArrayERKNS_12_OutputArrayES5_","__ZN2cvgtERKNS_3MatES2_","_cvFlip","__ZN2cv6plugin4impl10DynamicLib14libraryReleaseEv","__ZNK2cv5aruco5Board6getIdsEv","__ZN2cv17solvePnPRefineVVSERKNS_11_InputArrayES2_S2_S2_RKNS_17_InputOutputArrayES5_NS_12TermCriteriaEd","_cv_cartToPolar","__ZN2cv3Mat4onesEiPKii","__ZN2cv5MatOpD0Ev","_cv_StereoBM_setDisp12MaxDiff","_cvClipLine","__ZN2cv6detail11PlaneWarper17warpPointBackwardERKNS_6Point_IfEERKNS_11_InputArrayES8_","_cvAcc","_cv_VideoWriter_set","_cv_randn","_cv_Mat_flags","__ZN2cv3dnn14dnn4_v202506193Net4Impl4wrapERNS_3MatE","__ZN2cv3dnn14dnn4_v2025061910AcoshLayer6createERKNS1_11LayerParamsE","_cv_MSER_getMaxArea","_cv_FaceRecognizerSF_match","__ZN2cv11FileStorage4Impl4getsEv","__ZN2cv8parallel21setParallelForBackendERKNSt3__110shared_ptrINS0_14ParallelForAPIEEEb","__ZN2cv8ximgproc2rl9thresholdERKNS_11_InputArrayERKNS_12_OutputArrayEdi","__ZN2cv7imcountERKNSt3__112basic_stringIcNS0_11char_traitsIcEENS0_9allocatorIcEEEEi","__ZN2cv11stylizationERKNS_11_InputArrayERKNS_12_OutputArrayEff","_cvStartReadChainPoints","_cv_goodFeaturesToTrack_1","_cv_xobjdetect_WBDetector_read","_cv_ORB_getScoreType","__ZN2cv3ocl5TimerC2ERKNS0_5QueueE","__ZN2cv11polarToCartERKNS_11_InputArrayES2_RKNS_12_OutputArrayES5_b","_cv_Rodrigues","_cv_fisheye_solvePnPRansac","__ZN2cv3Mat6createENS_5Size_IiEEi","__ZN2cv3dnn14dnn4_v202506198LogLayer6createERKNS1_11LayerParamsE","__ZN2cv11bitwise_andERKNS_11_InputArrayES2_RKNS_12_OutputArrayES2_","_WebPPictureIsView","__ZNK2cv3ocl6Device10extensionsEv","__ZN2cv18getAffineTransformERKNS_11_InputArrayES2_","_cvEndWriteSeq","_cvSetReal1D","_cv_UMat_flags","__ZN2cv8Subdiv2D8QuadEdgeC1Ei","_cv_ximgproc_EdgeBoxes_setClusterMinMag","_std_VecPoint3f_get_p","_cv_VideoCapture_create_2","_cv_fastNlMeansDenoising_1","_cv_solvePnPGeneric","_cv_flann_IndexParams_params_ptr","__ZN2cv12VideoCaptureC2ERKNS_3PtrINS_13IStreamReaderEEEiRKNSt3__16vectorIiNS6_9allocatorIiEEEE","_cv_BRISK_close","__ZN2cv3hal5div8sEPKamS2_mPamiiPv","__ZN2cv3ocl5QueueaSEOS1_","_std_VecVec6f_clear","__ZN2cv7fisheye13distortPointsERKNS_11_InputArrayERKNS_12_OutputArrayES3_S3_d","__ZN2cv3hal8merge16uEPPKtPtii","__ZN2cv11FileStorage4Impl5writeERKNSt3__112basic_stringIcNS2_11char_traitsIcEENS2_9allocatorIcEEEEx","__ZN2cv5utils31getConfigurationParameterStringEPKcRKNSt3__112basic_stringIcNS3_11char_traitsIcEENS3_9allocatorIcEEEE","_cv_img_hash_pHash_compute","__ZN2cv7fisheye14undistortImageERKNS_11_InputArrayERKNS_12_OutputArrayES3_S3_S3_RKNS_5Size_IiEE","_cv_aruco_detectorParameters_set_adaptiveThreshWinSizeMax","__ZN2cv4UMatC2ENS_14UMatUsageFlagsE","__ZN2cvngERKNS_7MatExprE","__ZNK2cv3dnn14dnn4_v202506193Net4Impl12getLayerDataERKNSt3__112basic_stringIcNS4_11char_traitsIcEENS4_9allocatorIcEEEE","__ZN2cv8img_hash11averageHashERKNS_11_InputArrayERKNS_12_OutputArrayE","__ZNK2cv8FileNodecviEv","_cv_aruco_detectorParameters_get_cornerRefinementMethod","__ZN2cv3Mat5setToERKNS_11_InputArrayES3_","_cvGetRealND","__ZN2cv9AnimationC2EiNS_7Scalar_IdEE","_cv_bitwise_xor_1","__ZN2cv3dnn14dnn4_v2025061913SoftsignLayer6createERKNS1_11LayerParamsE","_cv_quality_QualityMSE_compute","__ZN2cv8FileNodeC1EPNS_11FileStorage4ImplEmm","_cvEllipse","__ZN2cv5aruco23getPredefinedDictionaryENS0_24PredefinedDictionaryTypeE","__ZN2cv7fisheye42estimateNewCameraMatrixForUndistortRectifyERKNS_11_InputArrayES3_RKNS_5Size_IiEES3_RKNS_12_OutputArrayEdS7_d","__ZNK2cv5MatOp12augAssignAndERKNS_7MatExprERNS_3MatE","_WebPSafeCalloc","__ZN2cv4UMat7releaseEv","_cvInitMatHeader","_std_VecVec4f_resize","_cv_ximgproc_EdgeDrawing_detectEllipses","__ZN2cv5writeERNS_11FileStorageERKNSt3__112basic_stringIcNS2_11char_traitsIcEENS2_9allocatorIcEEEEd","__ZN2cv3dnn14dnn4_v202506193Net13setInputShapeERKNSt3__112basic_stringIcNS3_11char_traitsIcEENS3_9allocatorIcEEEERKNS3_6vectorIiNS7_IiEEEE","__ZNK2cv6detail27BundleAdjusterAffinePartial25obtainRefinedCameraParamsERNSt3__16vectorINS0_12CameraParamsENS2_9allocatorIS4_EEEE","__ZN2cv13HOGDescriptor4loadERKNSt3__112basic_stringIcNS1_11char_traitsIcEENS1_9allocatorIcEEEES9_","__ZN2cv3ocl7Context6createEi","__ZN2cv8fastFreeEPv","_WebPPictureRescale","__ZN2cv7putTextERKNS_17_InputOutputArrayERKNSt3__112basic_stringIcNS3_11char_traitsIcEENS3_9allocatorIcEEEENS_6Point_IiEEidNS_7Scalar_IdEEiib","_cv_ximgproc_StructuredEdgeDetection_close","__ZN2cv3ocl7ContextC2Ei","_cv_PCACompute","_cv_QRCodeDetector_decodeCurved","__ZNK2cv13HOGDescriptor15groupRectanglesERNSt3__16vectorINS_5Rect_IiEENS1_9allocatorIS4_EEEERNS2_IdNS5_IdEEEEid","__ZN2cv13insertChannelERKNS_11_InputArrayERKNS_17_InputOutputArrayEi","__ZN2cv16ParallelLoopBodyD1Ev","__ZN2cv9SparseMat6createEiPKii","__ZN2cv17icvExtractPatternERKNSt3__112basic_stringIcNS0_11char_traitsIcEENS0_9allocatorIcEEEEPj","__ZN2cv17FlannBasedMatcher17convertToDMatchesERKNS_17DescriptorMatcher20DescriptorCollectionERKNS_3MatES7_RNSt3__16vectorINS9_INS_6DMatchENS8_9allocatorISA_EEEENSB_ISD_EEEE","__ZNK2cv3ocl6Kernel12localMemSizeEv","__ZN2cv8img_hash13BlockMeanHash7setModeEi","_std_VecI16_clear","__ZN2cv3dnn14dnn4_v2025061911GatherLayer6createERKNS1_11LayerParamsE","__ZN2cv5aruco5BoardC2ERKNS_11_InputArrayERKNS0_10DictionaryES4_","__ZN2cv3SVD7computeERKNS_11_InputArrayERKNS_12_OutputArrayES6_S6_i","__ZN2cv17DescriptorMatcherD0Ev","_cv_StereoBM_getPreFilterCap","__ZN2cv9SparseMatC2ERKS0_","_cv_fisheye_distortPoints","__ZNK2cv9softfloatgtERKS0_","__ZN2cv4gemmERKNS_11_InputArrayES2_dS2_dRKNS_12_OutputArrayEi","__ZNK2cv5MatOp4sizeERKNS_7MatExprE","_cv_VideoCapture_retrieve","__ZN2cv3hal8split16uEPKtPPtii","__ZNK2cv12_OutputArray11reinterpretEi","_WebPInitDecBufferInternal","__ZN2cv5instr8setFlagsENS0_5FLAGSE","_cv_AgastFeatureDetector_setThreshold","_cv_KalmanFilter_set_statePre","_cv_Mat_reinterpret","__ZN2cv11FileStorage4Impl16reserveNodeSpaceERNS_8FileNodeEm","__ZN2cv15ImageCollection4ImplC2ERKNSt3__112basic_stringIcNS2_11char_traitsIcEENS2_9allocatorIcEEEEi","_cv_MSER_create_1","_cv_ximgproc_EdgeDrawing_close","__ZNK2cv13HOGDescriptor11getWinSigmaEv","_cv_MSER_getPass2Only","__ZN2cv14phaseCorrelateERKNS_11_InputArrayES2_S2_Pd","__ZN2cv15NAryMatIteratorppEi","__ZN2cv4readERKNS_8FileNodeERNSt3__112basic_stringIcNS3_11char_traitsIcEENS3_9allocatorIcEEEERKS9_","_cvGetMinMaxHistValue","_cvRelease","_cvSaveMemStoragePos","_cv_ximgproc_EdgeBoxes_getEdgeMergeThr","__ZN2cv5utils17addDataSearchPathERKNSt3__112basic_stringIcNS1_11char_traitsIcEENS1_9allocatorIcEEEE","__ZNK2cv11VideoWriter3getEi","_cv_HOGDescriptor_create_1","__ZN2cv6detail12DpSeamFinder4findERKNSt3__16vectorINS_4UMatENS2_9allocatorIS4_EEEERKNS3_INS_6Point_IiEENS5_ISB_EEEERS7_","_WebPFreeDecBuffer","__ZN2cv9SparseMat3Hdr5clearEv","__ZNK2cv8FileNode5beginEv","__ZN2cv3dnn14dnn4_v2025061912LayerFactory19createLayerInstanceERKNSt3__112basic_stringIcNS3_11char_traitsIcEENS3_9allocatorIcEEEERNS1_11LayerParamsE","_cvInitImageHeader","_cvSetErrMode","_cv_Mat_convertTo_1","__ZN2cv13HOGDescriptor24getDaimlerPeopleDetectorEv","__ZN2cv3dnn14dnn4_v202506195Layer9initTimVXEPvRKNSt3__16vectorINS_3PtrINS1_14BackendWrapperEEENS4_9allocatorIS8_EEEESD_b","_cvMakeSeqHeaderForArray","_WebPPictureImportRGB","_cv_Mat_create_11","_cv_Mat_get_i32_1","__ZNK2cv8img_hash16MarrHildrethHash8getScaleEv","_std_VecVecPoint3i_new","__ZN2cv12VideoCapture4openERKNS_3PtrINS_13IStreamReaderEEEiRKNSt3__16vectorIiNS6_9allocatorIiEEEE","__ZN2cv3ocl6KernelaSEOS1_","__ZN2cv3ocl7ProgramaSEOS1_","_cv_aruco_detectorParameters_get_aprilTagCriticalRad","_cv_copyMakeBorder","__ZN2cv9composeRTERKNS_11_InputArrayES2_S2_S2_RKNS_12_OutputArrayES5_S5_S5_S5_S5_S5_S5_S5_S5_","_cv_flann_IndexParams_getDouble","_cv_StereoSGBM_getMode","_cv_dnn_AsyncArray_close","__ZNK2cv20AgastFeatureDetector14getDefaultNameEv","_writeLogMessage","__ZN2cv5aruco16RefineParametersC2Effb","__ZN2cv3hal6max32fEPKfmS2_mPfmiiPv","__ZN2cv3dnn14dnn4_v202506199TileLayer6createERKNS1_11LayerParamsE","_cv_Mat_create_6_no_copy","__ZNK2cv3dnn14dnn4_v202506193Net4Impl13getPinByAliasERKNSt3__112basic_stringIcNS4_11char_traitsIcEENS4_9allocatorIcEEEE","_cv_VideoWriter_create_2","_cv_GFTTDetector_setMinDistance","__ZNK2cv8FileNode5isMapEv","_cvLine","__ZN2cv5flann16SavedIndexParamsC1ERKNSt3__112basic_stringIcNS2_11char_traitsIcEENS2_9allocatorIcEEEE","__ZN2cv3hal19cvtBGRtoTwoPlaneYUVEPKhmPhS3_miiibi","__ZN2cv12buildPyramidERKNS_11_InputArrayERKNS_12_OutputArrayEii","__ZNK2cv5flann5Index11getDistanceEv","__ZN2cv6detail12CameraParamsC1Ev","_cv_UMat_offset","_std_VecChar_set","__ZN2cv12getTickCountEv","__ZN2cv17AVIWriteContainerC2Ev","__ZN2cv17CascadeClassifier16getMaskGeneratorEv","_std_VecVec4i_new","_cv_Mat_copyTo_1","_cv_SimpleBlobDetector_close","__ZN2cv3dnn14dnn4_v202506193Net4Impl14allocateLayersERKNSt3__16vectorINS1_6detail8LayerPinENS4_9allocatorIS7_EEEE","__ZN2cv17getOptimalDFTSizeEi","_WebPDecodeYUV","_std_VecPoint2f_resize","_WebPMuxPushFrame","__ZN2cv5writeERNS_11FileStorageERKNSt3__112basic_stringIcNS2_11char_traitsIcEENS2_9allocatorIcEEEERKNS_3MatE","__ZN2cv19goodFeaturesToTrackERKNS_11_InputArrayERKNS_12_OutputArrayEiddS2_iibd","__ZN2cv8parallel14ParallelForAPID0Ev","__ZN2cv5aruco16RefineParameters20readRefineParametersERKNS_8FileNodeE","__ZN2cv6detail12DisjointSets9mergeSetsEii","__ZN2cv3ocl20getOpenCLErrorStringEi","__ZN2cv5instr21setUseInstrumentationEb","__ZN2cv2ml9TrainData6createERKNS_11_InputArrayEiS4_S4_S4_S4_S4_","__ZN2cv3ocl7ContextC2ERKS1_","__ZN2cv3hal6div64fEPKdmS2_mPdmiiPv","_cv_edgePreservingFilter","__ZN2cv12AsyncPromiseC1Ev","__ZN2cv11FileStorage4Impl18finalizeCollectionERNS_8FileNodeE","_cvMultiplyAcc","_cv_Mat_op_sub_mat","__ZNK2cv3ocl6Device13driverVersionEv","_cv_StereoSGBM_setP2","__ZN2cv11FileStorage8writeRawERKNSt3__112basic_stringIcNS1_11char_traitsIcEENS1_9allocatorIcEEEEPKvm","_cv_aruco_getPredefinedDictionary","__ZN9CvLevMarqD2Ev","__ZN2cv11approxPolyNERKNS_11_InputArrayERKNS_12_OutputArrayEifb","__ZN2cv3ocl25predictOptimalVectorWidthERKNS_11_InputArrayES3_S3_S3_S3_S3_S3_S3_S3_NS0_17OclVectorStrategyE","_cv_findFundamentalMat_1","__ZN2cv8ximgproc21createRFFeatureGetterEv","_std_VecPoint3f_new_2","__ZN2cv3ocl6finishEv","__ZNK2cv3Mat3mulERKNS_11_InputArrayEd","__ZNK2cv3dnn14dnn4_v202506193Net4Impl20resolvePinOutputNameERNS1_6detail9LayerDataERKNSt3__112basic_stringIcNS7_11char_traitsIcEENS7_9allocatorIcEEEE","__ZN2cv5utils2fs4globERKNSt3__112basic_stringIcNS2_11char_traitsIcEENS2_9allocatorIcEEEESA_RNS2_6vectorIS8_NS6_IS8_EEEEbb","__ZN2cv3dnn14dnn4_v202506193Net12forwardAsyncERKNSt3__112basic_stringIcNS3_11char_traitsIcEENS3_9allocatorIcEEEE","_cv_initUndistortRectifyMap","_WebPAnimEncoderAdd","__ZN2cv3LDA7projectERKNS_11_InputArrayE","_SharpYuvInit","__ZNK2cv8Subdiv2D6Vertex6isfreeEv","__ZN2cv3MatC1EiPKiiPvPKm","_std_VecVecChar_shrink_to_fit","__ZN2cv8fillPolyERKNS_17_InputOutputArrayEPPKNS_6Point_IiEEPKiiRKNS_7Scalar_IdEEiiS4_","__ZN2cv20calcOpticalFlowPyrLKERKNS_11_InputArrayES2_S2_RKNS_17_InputOutputArrayERKNS_12_OutputArrayES8_NS_5Size_IiEEiNS_12TermCriteriaEid","__ZN2cv3ocl6Kernel4run_EiPmS2_bRKNS0_5QueueE","_cv_UMat_type","__ZN2cv16FileNodeIteratorC1ERKNS_8FileNodeEb","__ZN2cv13parallel_for_ERKNS_5RangeERKNS_16ParallelLoopBodyEd","_cv_KAZE_create_1","_cv_ximgproc_rl_dilate","_cv_Mat_create_10","__ZN2cv3MataSERKS0_","__ZN2cv11FileStorageC2Ev","__ZN2cv3ocl5Timer5startEv","__ZNK2cv8FileNode4nameEv","__ZN2cv11FileStorage4Impl20processSpecialDoubleEPcPdPS2_","__ZN2cv27estimateChessboardSharpnessERKNS_11_InputArrayENS_5Size_IiEES2_fbRKNS_12_OutputArrayE","_cv_flann_IndexParams_setDouble","_cv_getAffineTransform2f","__ZN2cv5aruco13ArucoDetectorC1ERKNS0_10DictionaryERKNS0_18DetectorParametersERKNS0_16RefineParametersE","_cvSetCaptureProperty","_cv_FaceDetectorYN_setScoreThreshold","_std_VecI16_data","__ZN2cv4UMat6createENS_5Size_IiEEiNS_14UMatUsageFlagsE","_cvCreateCameraCapture","_std_VecVecPoint_extend","_cv_CLAHE_create","__ZN2cv6detail15GainCompensator10singleFeedERKNSt3__16vectorINS_6Point_IiEENS2_9allocatorIS5_EEEERKNS3_INS_4UMatENS6_ISB_EEEERKNS3_INS2_4pairISB_hEENS6_ISH_EEEE","_std_VecPoint2f_extend","_std_VecI8_new","_std_VecVecPoint3f_set","_std_VecU32_reserve","__ZN2cv8CholeskyEPdmiS0_mi","__ZN2cv16TLSDataContainer7releaseEv","__ZN2cv15ImageCollectionC2Ev","__ZN2cv3hal5cmp8uEPKhmS2_mPhmiiPv","__ZN2cv3ipp9setUseIPPEb","__ZN2cv6detail8tracking32TrackerStateEstimatorMILBoosting21TrackerMILTargetState11setFeaturesERKNS_3MatE","_cv_Mat_get_f32_2","__ZN2cv8FileNodeaSERKS0_","__ZNK2cv10AsyncArray3getERKNS_12_OutputArrayE","_cv_UMat_reshape_2","__ZN2cv3MatC2EiPKii","_std_VecU32_new","_cv_StereoSGBM_getMinDisparity","__ZN2cv8ximgproc2rl5erodeERKNS_11_InputArrayERKNS_12_OutputArrayES4_bNS_6Point_IiEE","__ZN2cvdvEdRKNS_7MatExprE","_cv_applyColorMap","__ZN2cv12VideoCapture3setEid","_WebPPictureImportRGBA","__ZN2cv5solveERKNS_11_InputArrayES2_RKNS_12_OutputArrayEi","_cv_ximgproc_rl_isRLMorphologyPossible","__ZN2cv12completeSymmERKNS_17_InputOutputArrayEb","__ZN2cv3Mat5zerosEiPKii","_cv_img_hash_radialVarianceHash_compute","__ZN2cv3ocl15getPlatfomsInfoERNSt3__16vectorINS0_12PlatformInfoENS1_9allocatorIS3_EEEE","__ZN2cv13wechat_qrcode12WeChatQRCode15detectAndDecodeERKNS_11_InputArrayERKNS_12_OutputArrayE","__ZN2cv17imencodeanimationERKNSt3__112basic_stringIcNS0_11char_traitsIcEENS0_9allocatorIcEEEERKNS_9AnimationERNS0_6vectorIhNS4_IhEEEERKNSC_IiNS4_IiEEEE","__ZN2cv4UMat4onesENS_5Size_IiEEiNS_14UMatUsageFlagsE","__ZN2cv3ocl13ProgramSourceC1ERKNSt3__112basic_stringIcNS2_11char_traitsIcEENS2_9allocatorIcEEEESA_SA_SA_","__ZNK2cv3ocl6Device14singleFPConfigEv","__ZN2cv8imdecodeERKNS_11_InputArrayEi","__ZN2cv17CascadeClassifier16detectMultiScaleERKNS_11_InputArrayERNSt3__16vectorINS_5Rect_IiEENS4_9allocatorIS7_EEEEdiiNS_5Size_IiEESD_","__ZN2cv2ml3SVM14getDefaultGridEi","__ZN2cv5BRISK6createEiif","__ZN2cvmiERKNS_3MatES2_","_cv_Mat_get_u8_3","_cv_Mat_set_Vec3d","_cv_connectedComponents","__ZN2cv12LineIterator4initEPKNS_3MatENS_5Rect_IiEENS_6Point_IiEES7_ib","_cv_idct","_cv_StereoBM_setSpeckleWindowSize","_cv_Subdiv2D_getEdge","_cv_ORB_setPatchSize","_cvCreateData","_cv_Mat_size","__ZNK2cv5MatOp17augAssignMultiplyERKNS_7MatExprERNS_3MatE","_cv_Mat_set_Vec2s","_cv_Mat_set_i16_3","_cv_Subdiv2D_getVertex","_cv_img_hash_BlockMeanHash_setMode","_cv_img_hash_pHash_compare","_cv_VideoCapture_open_2","_cv_findHomography_1","__ZN2cv3dnn14dnn4_v202506193Net4Impl14addLayerToPrevERKNSt3__112basic_stringIcNS4_11char_traitsIcEENS4_9allocatorIcEEEESC_RKiRNS1_11LayerParamsE","__ZNK2cv19FastFeatureDetector14getDefaultNameEv","__ZN2cv5utils5trace7details6RegionC2ERKNS3_21LocationStaticStorageE","__ZN2cv8internal15IntrinsicParamsaSERKNS_3MatE","_cv_CascadeClassifier_detectMultiScale_2","__ZN2cv9softfloatC2Ey","_WebPAnimDecoderHasMoreFrames","_cv_HoughLinesP_1","__ZN2cv3ocl13ProgramSourceC2EPKc","__ZN2cv20imencodeWithMetadataERKNSt3__112basic_stringIcNS0_11char_traitsIcEENS0_9allocatorIcEEEERKNS_11_InputArrayERKNS0_6vectorIiNS4_IiEEEESB_RNSC_IhNS4_IhEEEESG_","_cv_Subdiv2D_create_1","_std_VecI32_free","__ZN2cv14findHomographyERKNS_11_InputArrayES2_RKNS_12_OutputArrayEid","_cvCreateFileCaptureWithPreference","__ZN2cv5aruco18DetectorParameters22readDetectorParametersERKNS_8FileNodeE","_cv_CLAHE_create_1","_cv_Mat_get_i16_1","__ZN2cv3hal13addRNGBias64fEPdPKdi","_WebPAnimDecoderOptionsInitInternal","__ZN2cv15getVersionMinorEv","__ZN2cv6detail21BestOf2NearestMatcherC1Ebfiid","__ZN2cv20perspectiveTransformERKNS_11_InputArrayERKNS_12_OutputArrayES2_","__ZN2cv8ximgproc11EdgeDrawing6ParamsC1Ev","__ZNK2cv5aruco5Board16matchImagePointsERKNS_11_InputArrayES4_RKNS_12_OutputArrayES7_","__ZN2cv8internal21EstimateUncertaintiesERKNS_11_InputArrayES3_RKNS0_15IntrinsicParamsES3_S3_RS4_RNS_3VecIdLi2EEEdiRd","__ZN2cv6detail18PairwiseSeamFinder4findERKNSt3__16vectorINS_4UMatENS2_9allocatorIS4_EEEERKNS3_INS_6Point_IiEENS5_ISB_EEEERS7_","__ZNK2cv4KAZE14getDefaultNameEv","__ZN2cv5flann5IndexD0Ev","__ZN2cv15ImageCollection4Impl4initERKNSt3__112basic_stringIcNS2_11char_traitsIcEENS2_9allocatorIcEEEEi","__ZNK2cv13HOGDescriptor6detectERKNS_11_InputArrayERNSt3__16vectorINS_6Point_IiEENS4_9allocatorIS7_EEEEdNS_5Size_IiEESD_RKSA_","_cvMahalanobis","__ZN2cv6detail23normalizeUsingWeightMapERKNS_11_InputArrayERKNS_17_InputOutputArrayE","__ZN2cv8Subdiv2D13setEdgePointsEiii","__ZN2cv6detail11PlaneWarper9buildMapsENS_5Size_IiEERKNS_11_InputArrayES6_S6_RKNS_12_OutputArrayES9_","__ZN2cv6detail20BundleAdjusterReproj12calcJacobianERNS_3MatE","_cv_Mat_toVecPoint3f","_cv_UMat_total","__ZN2cv8img_hash16marrHildrethHashERKNS_11_InputArrayERKNS_12_OutputArrayEff","_cv_aruco_detectorParameters_get_aprilTagMinClusterPixels","_cv_UMat_rows","_std_VecVec4f_extend","__ZN2cv3hal3expEPKfPfi","__ZN2cv21intersectConvexConvexERKNS_11_InputArrayES2_RKNS_12_OutputArrayEb","__ZNK2cv8img_hash18RadialVarianceHash8getSigmaEv","_cv_KalmanFilter_get_errorCovPost","_std_VecVecPoint3f_push_back","__ZNK2cv11_InputArray13getUMatVectorERNSt3__16vectorINS_4UMatENS1_9allocatorIS3_EEEE","__ZNK2cv3ocl6Device7hasFP16Ev","_cv_perspectiveTransform","_cv_AKAZE_setDiffusivity","_cv_dnn_Net_getInputDetails","_cv_solvePnPRefineLM","_WebPEncodeLosslessRGBA","__ZN2cv4UMat5zerosENS_5Size_IiEEiNS_14UMatUsageFlagsE","__ZN2cv11FileStorage4Impl5writeERKNSt3__112basic_stringIcNS2_11char_traitsIcEENS2_9allocatorIcEEEESA_","_cvSolve","_cv_pyrUp","_cv_UMat_create_4","_cv_VideoCapture_open","_cv_invert","__ZN2cv6detail8tracking17TrackerSamplerCSC6ParamsC2Ev","__ZN2cv8FileNode12isCollectionEi","__ZN2cv3dnn14dnn4_v2025061912ScatterLayer6createERKNS1_11LayerParamsE","_cv_FastFeatureDetector_empty","__ZN2cv30createBackgroundSubtractorMOG2Eidb","__ZN2cv7hconcatEPKNS_3MatEmRKNS_12_OutputArrayE","__ZN2cv5aruco12CharucoBoardC2ERKNS_5Size_IiEEffRKNS0_10DictionaryERKNS_11_InputArrayE","__ZNK2cv7MatExpr3mulERKNS_3MatEd","_std_VecVecChar_reserve","__ZN2cv10solveCubicERKNS_11_InputArrayERKNS_12_OutputArrayE","_std_VecPoint_free","__ZN2cv16videoio_registry10hasBackendENS_16VideoCaptureAPIsE","__ZN2cv11VideoWriterC1ERKNSt3__112basic_stringIcNS1_11char_traitsIcEENS1_9allocatorIcEEEEidRKNS_5Size_IiEERKNS1_6vectorIiNS5_IiEEEE","__ZN2cv3hal5sub8sEPKamS2_mPamiiPv","__ZN2cv3ocl7Image2DC1EOS1_","__ZN2cv3dnn14dnn4_v202506195Layer10initHalideERKNSt3__16vectorINS_3PtrINS1_14BackendWrapperEEENS3_9allocatorIS7_EEEE","_cv_convexityDefects2f","_std_VecPoint3i_shrink_to_fit","__ZN2cv3ocl6KernelC2Ev","__ZN2cv8parallel14ParallelForAPID2Ev","__ZN2cvmlERKNS_3MatES2_","__ZNK2cv3dnn14dnn4_v202506193Net4Impl17dumpNetworkToFileEv","__ZNK2cv5aruco13ArucoDetector5writeERNS_11FileStorageE","__ZN2cv18SimpleBlobDetector6createERKNS0_6ParamsE","__ZN2cv17DescriptorMatcher15isPossibleMatchERKNS_11_InputArrayEii","_cv_FastFeatureDetector_create","__ZN2cv11RNG_MT19937C2Ev","__ZN2cv3ocl12PlatformInfoaSERKS1_","__ZN2cvdvEdRKNS_3MatE","__ZN2cv10accumulateERKNS_11_InputArrayERKNS_17_InputOutputArrayES2_","__ZN2cv17AVIWriteContainer12jflushStreamEji","_std_VecPoint2f_reserve","_registerErrorCallback","_std_VecF32_clone","__ZN2cv12KalmanFilter7correctERKNS_3MatE","_cv_Mat_op_sub_u8","_WebPGetDemuxVersion","_std_VecRect_length","_cv_KAZE_setDiffusivity","__ZNK2cv16TLSDataContainer7getDataEv","_cv_imdecode","__ZN2cv15NAryMatIteratorC1Ev","__ZN2cv8Stitcher12setTransformERKNS_11_InputArrayERKNSt3__16vectorINS_6detail12CameraParamsENS4_9allocatorIS7_EEEE","_cv_scaleAdd","__ZN2cv11FileStorage4Impl13Base64DecoderC1Ev","__ZN2cv5utils5trace7details8traceArgERKNS2_8TraceArgEPKc","__ZN2cv8Stitcher15composePanoramaERKNS_12_OutputArrayE","_cv_FastFeatureDetector_close","__ZN2cv6detail20BundleAdjusterAffine9calcErrorERNS_3MatE","__ZN2cv23estimateAffinePartial2DERKNS_11_InputArrayES2_RKNS_12_OutputArrayEidmdm","__ZN2cv3dnn14dnn4_v2025061915DequantizeLayer6createERKNS1_11LayerParamsE","__ZN2cv8Stitcher12setTransformERKNS_11_InputArrayERKNSt3__16vectorINS_6detail12CameraParamsENS4_9allocatorIS7_EEEERKNS5_IiNS8_IiEEEE","__ZN2cv11FileStorage4Impl23startWriteStruct_helperEPKciS3_","_std_VecF16_set","_WebPAnimDecoderGetInfo","__ZNK2cv12_OutputArray15getGpuMatVecRefEv","__ZNK2cv10softdoublecvNS_9softfloatEEv","__ZNK2cv8img_hash18RadialVarianceHash17getNumOfAngleLineEv","__ZN2cv32fastNlMeansDenoisingColoredMultiERKNS_11_InputArrayERKNS_12_OutputArrayEiiffii","__ZN2cv9ExceptionD1Ev","_cvStartWriteSeq","__ZNK2cv17DescriptorMatcher19getTrainDescriptorsEv","__ZN2cv3dnn14dnn4_v2025061916readNetFromCaffeERKNSt3__16vectorIhNS2_9allocatorIhEEEES8_","_cv_StereoBM_setTextureThreshold","__ZN2cv2ml9TrainDataD0Ev","_cv_estimateAffine3D_1","__ZNK2cv9Feature2D5writeERKNSt3__112basic_stringIcNS1_11char_traitsIcEENS1_9allocatorIcEEEE","_cv_Mat_get_Vec3b","__ZN2cv5aruco16RefineParameters21writeRefineParametersERNS_11FileStorageERKNSt3__112basic_stringIcNS4_11char_traitsIcEENS4_9allocatorIcEEEE","__ZN2cv15ImageCollection4Impl2atEi","__ZN2cv3MatC2EiPKiiPvPKm","_cvStartFindContours","_cv_FastFeatureDetector_setNonmaxSuppression","_std_VecF32_reserve","_WebPPictureCopy","__ZN2cv11recoverPoseERKNS_11_InputArrayES2_S2_S2_RKNS_12_OutputArrayES5_dRKNS_17_InputOutputArrayES5_","__ZNK2cv3dnn14dnn4_v202506193Net4Impl14getLayersCountERKNSt3__112basic_stringIcNS4_11char_traitsIcEENS4_9allocatorIcEEEE","__ZN2cv5instr8NodeDataC1EPKcS3_iPvbNS0_4TYPEENS0_4IMPLE","__ZNK2cv3ocl6Device18imageMaxBufferSizeEv","_cv_AKAZE_setDescriptorType","_std_VecRotatedRect_get","_cv_Mat_get_Vec8i","__ZNK2cv11FileStorage4Impl9getFormatEv","_cv_Mat_set_Vec3s","__ZN2cv3hal7invSqrtEPKfPfi","_cv_Stitcher_estimateTransform","_getLogCallback","__ZN2cv3dnn14dnn4_v202506193Net4Impl14enableWinogradEb","_cv_VideoCapture_open_3","_cv_KalmanFilter_get_measurementMatrix","__ZN2cv12AsyncPromise14getArrayResultEv","__ZN2cvneERKNS_3MatES2_","__ZN2cv11FileStorage4Impl17analyze_file_nameERKNSt3__112basic_stringIcNS2_11char_traitsIcEENS2_9allocatorIcEEEERNS2_6vectorIS8_NS6_IS8_EEEE","_cv_aruco_detectorParameters_get_aprilTagMaxLineFitMse","_cvReleaseMat","_std_VecVecPoint3f_resize","__ZNK2cv3dnn14dnn4_v202506193Net8getFLOPSEiRKNSt3__16vectorIiNS3_9allocatorIiEEEE","_cvApproxPoly","__ZN2cv6detail8tracking12TrackerModelD0Ev","_cv_aruco_arucoDetector_create","_cv_StereoBM_getSmallerBlockSize","__ZN2cv3ocl13ProgramSourceC1EPKc","__ZN2cv2ml3SVM17getDefaultGridPtrEi","_cv_findChessboardCornersSB","__ZN2cv8img_hash11ImgHashBase7computeERKNS_11_InputArrayERKNS_12_OutputArrayE","__ZNK2cv3ocl22OpenCLExecutionContext9getDeviceEv","_WebPConfigInitInternal","__ZNK2cv8FileNodecvfEv","_cv_UMat_create_6","_cv_aruco_detectorParameters_set_cornerRefinementMinAccuracy","_SharpYuvConvert","_std_VecI32_push_back","__ZN2cv6detail21resultRoiIntersectionERKNSt3__16vectorINS_6Point_IiEENS1_9allocatorIS4_EEEERKNS2_INS_5Size_IiEENS5_ISB_EEEE","_cv_compare","_cvCreateSet","_cv_Stitcher_stitch","__ZN2cv3hal19warpAffineBlocklineEPiS1_PsS2_iii","_cv_FaceRecognizerSF_alignCrop","_std_VecU16_set","__ZN2cv10PCAComputeERKNS_11_InputArrayERKNS_17_InputOutputArrayERKNS_12_OutputArrayES8_i","__ZN2cv3hal11normHammingEPKhii","__ZNK2cv8FileNode4sizeEv","_WebPDemuxGetFrame","_WebPMuxCreateInternal","_WebPMuxSetImage","__ZN2cv3hal11cvtBGRtoHSVEPKhmPhmiiiibbb","_cv_dnn_Net_readNetFromTensorflow","__ZN2cv8cubeRootEf","__ZN2cv5utils10BufferAreaC2Eb","__ZN2cv7MomentsC2Ev","__ZN2cv8internal18WriteStructContextD2Ev","_cvMinS","__ZNK2cv5MatOp3roiERKNS_7MatExprERKNS_5RangeES6_RS1_","_std_VecPoint2f_get_p","_cv_dnn_Net_setInput","__ZNK2cv5MatOp9transposeERKNS_7MatExprERS1_","__ZN2cv9BFMatcher6createEib","__ZN2cv3LDA3ldaERKNS_11_InputArrayES3_","__ZN2cv3dnn14dnn4_v2025061911EinsumLayer6createERKNS1_11LayerParamsE","__ZN2cv3dnn14dnn4_v202506193Net4Impl12getBlobAsyncENSt3__112basic_stringIcNS4_11char_traitsIcEENS4_9allocatorIcEEEE","__ZNK2cv12_OutputArray12getGpuMatRefEv","__ZN2cv17FlannBasedMatcher12knnMatchImplERKNS_11_InputArrayERNSt3__16vectorINS5_INS_6DMatchENS4_9allocatorIS6_EEEENS7_IS9_EEEEiS3_b","__ZN2cv3hal21warpAffineBlocklineNNEPiS1_Psiii","__ZN2cv3ocl6DeviceC2EOS1_","_cvSampleLine","__ZNK2cv15ImageCollection4Impl4sizeEv","__ZN2cv7hconcatERKNS_11_InputArrayES2_RKNS_12_OutputArrayE","_cv_Mat_get_i8_2","_cv_BFMatcher_knnMatch","__ZNK2cv7MatExprclERKNS_5Rect_IiEE","__ZNK2cv17CascadeClassifier14getFeatureTypeEv","__ZN2cv17CascadeClassifier7convertERKNSt3__112basic_stringIcNS1_11char_traitsIcEENS1_9allocatorIcEEEES9_","__ZNK2cv11VideoWriter8isOpenedEv","__ZN2cv20FarnebackOpticalFlow6createEidbiiidi","__ZN2cv3hal5add8sEPKamS2_mPamiiPv","__ZN2cv3dnn14dnn4_v202506195LayerC2Ev","_cv_haveImageReader","_cv_Mat_region","__ZN2cv3dnn14dnn4_v202506193Net7forwardERNSt3__16vectorINS4_INS_3MatENS3_9allocatorIS5_EEEENS6_IS8_EEEERKNS4_INS3_12basic_stringIcNS3_11char_traitsIcEENS6_IcEEEENS6_ISG_EEEE","_std_VecU64_clone","__ZNK2cv4UMat8ndoffsetEPm","_cv_KAZE_detect","__ZN2cv3dnn14dnn4_v202506199TanHLayer6createERKNS1_11LayerParamsE","_cv_ximgproc_niBlackThreshold","_WebPValidateConfig","_cv_GFTTDetector_empty","__ZN2cv3dnn14dnn4_v2025061914AttentionLayer6createERKNS1_11LayerParamsE","__ZN2cv16accumulateSquareERKNS_11_InputArrayERKNS_17_InputOutputArrayES2_","_std_VecKeyPoint_resize","_cv_imwrite","__ZN2cv6detail21BestOf2NearestMatcherC2Ebfiid","__ZN2cv3hal14cartToPolar32fEPKfS2_PfS3_ib","_cv_Subdiv2D_create","__ZN2cv10softdoubleC1Ej","__ZN2cv7quality11QualityGMSD7computeERKNS_11_InputArrayE","__ZNK2cv3Mat5totalEv","_cv_minAreaRect","_cv_Mat_set_i32_3","__ZN2cv3hal8CholeskyEPdmiS1_mi","__ZN2cv11FileStorage7releaseEv","__ZN2cv15setBreakOnErrorEb","__ZNK2cv10softdoubledvERKS0_","__ZN2cv17CascadeClassifier13getOldCascadeEv","__ZN2cv20checkHardwareSupportEi","_cv_flann_IndexParams_getInt","_cv_ximgproc_EdgeBoxes_create","_WebPMemoryWriterInit","_std_VecVec6f_get","_cv_imcount","_std_VecVecPoint_get_ij","__ZNK2cv3Mat6copyToERKNS_12_OutputArrayERKNS_11_InputArrayE","__ZN2cv3hal11cvtBGRtoYUVEPKhmPhmiiiibbNS_13AlgorithmHintE","__ZN2cv17CascadeClassifierC1ERKNSt3__112basic_stringIcNS1_11char_traitsIcEENS1_9allocatorIcEEEE","__ZN2cv3ocl8PlatformC2EOS1_","__ZNK2cv17DescriptorMatcher20DescriptorCollection14getDescriptorsEv","__ZN2cv11mixChannelsERKNS_11_InputArrayERKNS_17_InputOutputArrayEPKim","_cv_CascadeClassifier_detectMultiScale","__ZN2cv10setRNGSeedEi","__ZN2cv2ml9ParamGridC2Eddd","__ZN2cv5instr8NodeDataD1Ev","__ZN2cv11FileStorage4Impl10workaroundEv","_VP8LCheckSignature","__ZN2cv15KeyPointsFilter17runByKeypointSizeERNSt3__16vectorINS_8KeyPointENS1_9allocatorIS3_EEEEff","_cv_hasNonZero","_std_VecKeyPoint_free","__ZN2cv11FileStorage4Impl13Base64Decoder10getFloat64Ev","_cv_Mat_op_sub_i32","__ZN2cv15ImageCollectionC1ERKNSt3__112basic_stringIcNS1_11char_traitsIcEENS1_9allocatorIcEEEEi","__ZN2cv5aruco12CharucoBoardC2Ev","__ZNK2cv4UMat4diagEi","_WebPEncodeLosslessBGR","_cv_CLAHE_setTilesGridSize","_cv_StereoBM_getBlockSize","__ZN2cv13getRectSubPixERKNS_11_InputArrayENS_5Size_IiEENS_6Point_IfEERKNS_12_OutputArrayEi","_WebPDemuxGetI","_cv_getTickCount","_cv_filter2D","__ZNK2cv8Subdiv2D6Vertex9isvirtualEv","__ZN2cv24currentParallelFrameworkEv","__ZN2cv3hal5add8uEPKhmS2_mPhmiiPv","_cv_morphologyEx_1","__ZN2cv6kmeansERKNS_11_InputArrayEiRKNS_17_InputOutputArrayENS_12TermCriteriaEiiRKNS_12_OutputArrayE","_cv_Mat_set_Vec4f","_cv_dnn_NMSBoxes","__ZNK2cv4UMat5totalEv","__ZNK2cv3ocl6Device17maxWriteImageArgsEv","__ZN2cv9FormattedD0Ev","__ZN2cv3dnn14dnn4_v202506195Layer14supportBackendEi","__ZN2cv3hal8CholeskyEPfmiS1_mi","_cv_findContours2f","_cvAdd","_cv_ORB_create","_cv_trace","__ZN2cv8FileNode3ptrEv","__ZN2cv11drawMatchesERKNS_11_InputArrayERKNSt3__16vectorINS_8KeyPointENS3_9allocatorIS5_EEEES2_SA_RKNS4_INS_6DMatchENS6_ISB_EEEERKNS_17_InputOutputArrayERKNS_7Scalar_IdEESM_RKNS4_IcNS6_IcEEEENS_16DrawMatchesFlagsE","__ZN2cv5utils7logging8internal24replaceWriteLogMessageExEPFvNS1_8LogLevelEPKcS5_iS5_S5_E","__ZN2cv5flann14LshIndexParamsC2Eiii","__ZN2cv5pyrUpERKNS_11_InputArrayERKNS_12_OutputArrayERKNS_5Size_IiEEi","__ZN2cv3addERKNS_11_InputArrayES2_RKNS_12_OutputArrayES2_i","__ZN2cv7quality11QualitySSIM9_mat_dataC2ERKNS_4UMatE","__ZN2cv6detail18GraphCutSeamFinderC2Eiff","_cv_img_hash_BlockMeanHash_compare","_cv_bitwise_not_1","__ZN2cv3dnn14dnn4_v202506195Layer13setActivationERKNS_3PtrINS1_15ActivationLayerEEE","_std_VecPoint2f_free","_std_VecUChar_new","_std_VecRect_new","__ZN2cv7quality11QualityGMSD9_mat_dataC2ERKNS_11_InputArrayE","_cvGetDims","_std_VecPoint_shrink_to_fit","_cv_QRCodeDetector_setEpsY","_std_VecUChar_new_1","_std_VecU8_reserve","__ZN2cv28convertPointsFromHomogeneousERKNS_11_InputArrayERKNS_12_OutputArrayE","__ZNK2cv2ml9StatModel5emptyEv","_cv_UMat_create_ones","_std_VecVec4f_data","_cv_ximgproc_EdgeDrawing_setParams","_std_VecU16_new_2","__ZN2cv3hal8merge64sEPPKxPxii","__ZN2cv8FileNodeC1Ev","_cv_accumulateProduct_1","_cv_Mat_toVecPoint2f","_cv_ximgproc_EdgeBoxes_getEta","__ZN2cv3hal5xor8uEPKhmS2_mPhmiiPv","__ZN2cv3ocl22OpenCLExecutionContext13getCurrentRefEv","_std_VecRect2f_set","_cv_dnn_Net_getLayerNames","_std_VecVecChar_new_1","_cv_MSER_getMinMargin","_cv_minEnclosingCircle","__ZN2cv6detail7Blender7prepareERKNSt3__16vectorINS_6Point_IiEENS2_9allocatorIS5_EEEERKNS3_INS_5Size_IiEENS6_ISC_EEEE","_cv_quality_QualityMSE_compute_static","__ZN2cv3ocl6KernelD1Ev","_std_VecU8_new_2","_WebPPictureARGBToYUVADithered","_cvSeqElemIdx","_cvGetErrMode","__ZN2cv11RNG_MT199374nextEv","__ZN2cv17DescriptorMatcher6createERKNSt3__112basic_stringIcNS1_11char_traitsIcEENS1_9allocatorIcEEEE","__ZN2cv9LaplacianERKNS_11_InputArrayERKNS_12_OutputArrayEiiddi","_cv_aruco_detectorParameters_set_aprilTagMinWhiteBlackDiff","__ZN2cv3dnn14dnn4_v202506195Layer8finalizeERKNSt3__16vectorINS_3MatENS3_9allocatorIS5_EEEE","__ZNK2cv11FileStorage4Impl10wrapMarginEv","_cvCalcArrHist","__ZNK2cv11FileStorage4Impl13Base64Decoder11endOfStreamEv","__ZN2cv15ImageCollection4Impl10readHeaderEv","__ZTv0_n56_NK2cv9Feature2D5emptyEv","_cv_transposeND","__ZN2cv12VideoCaptureC2ERKNSt3__112basic_stringIcNS1_11char_traitsIcEENS1_9allocatorIcEEEEiRKNS1_6vectorIiNS5_IiEEEE","__ZN2cv15ImageCollection8iteratorC1EPS0_i","_cvCmpS","__ZN2cv6detail8tracking12TrackerModel15modelEstimationERKNSt3__16vectorINS_3MatENS3_9allocatorIS5_EEEE","__ZN2cv6detail18selectRandomSubsetEiiRNSt3__16vectorIiNS1_9allocatorIiEEEE","_cv_ORB_setScaleFactor","__ZNK2cv3ocl6Device25preferredVectorWidthShortEv","_cv_randShuffle_1","__ZN2cv11RNG_MT19937cviEv","__ZN2cv11VideoWriter4openERKNSt3__112basic_stringIcNS1_11char_traitsIcEENS1_9allocatorIcEEEEidNS_5Size_IiEEb","_cv_KAZE_setNOctaveLayers","_std_VecF32_new_1","_cv_colRange","__ZN2cv3dnn14dnn4_v2025061914ShiftLayerInt86createERKNS1_11LayerParamsE","_cvGetTickCount","_cv_aruco_detectorParameters_set_adaptiveThreshWinSizeStep","_cv_bitwise_or_1","_cv_KAZE_getExtended","__ZNK2cv3Mat5totalEii","_cv_MergeMertens_process","_std_VecVecChar_clone","_cv_UMat_isContinuous","__ZN2cv4UMatD2Ev","__ZN2cv15ImageCollection5beginEv","__ZN2cv22SparseMatConstIteratorppEv","__ZN2cv6detail8tracking11ClfMilBoost6ParamsC1Ev","_cv_QRCodeDetector_detectMulti","__ZN2cv4KAZE6createEbbfiiNS0_15DiffusivityTypeE","__ZN2cveoERKNS_3MatERKNS_7Scalar_IdEE","__ZN2cv3dnn14dnn4_v202506195LayerD0Ev","_cvReleaseData","__ZN2cv5instr10resetTraceEv","_cv_SIFT_getDefaultName","_cvSetData","__ZN2cv3dnn14dnn4_v2025061914GroupNormLayer6createERKNS1_11LayerParamsE","_cv_RNG_close","__ZN2cv11VideoWriterlsERKNS_3MatE","_cv_UMat_dot","_cv_img_hash_BlockMeanHash_close","__ZN2cv3MatC2ENS_5Size_IiEEi","__ZN2cv15ImageCollection4Impl3endEPS0_","__ZN2cv6detail8tracking23TrackerSamplerAlgorithmD0Ev","__ZN2cv27fastNlMeansDenoisingColoredERKNS_11_InputArrayERKNS_12_OutputArrayEffii","__Z6cvCeilRKN2cv9softfloatE","__ZNK2cv10softdoublegtERKS0_","__ZN2cv5aruco10Dictionary19getByteListFromBitsERKNS_3MatE","__ZN2cv16findTransformECCERKNS_11_InputArrayES2_RKNS_17_InputOutputArrayEiNS_12TermCriteriaES2_i","_cvGetNormalizedCentralMoment","_cv_ximgproc_EdgeDrawing_getSegments","_cvClearMemStorage","_cv_ORB_getNLevels","__ZN2cv6detail15FeaturesMatcher5matchERKNSt3__16vectorINS0_13ImageFeaturesENS2_9allocatorIS4_EEEERNS3_INS0_11MatchesInfoENS5_ISA_EEEERKNS_4UMatE","__ZN2cv3dnn14dnn4_v2025061922GeluApproximationLayer6createERKNS1_11LayerParamsE","__ZN2cv7absdiffERKNS_11_InputArrayES2_RKNS_12_OutputArrayE","__ZNK2cv11FileStorage4ImplixERKNSt3__112basic_stringIcNS2_11char_traitsIcEENS2_9allocatorIcEEEE","__ZN2cv11FileStorage12writeCommentERKNSt3__112basic_stringIcNS1_11char_traitsIcEENS1_9allocatorIcEEEEb","__ZN2cv4UMatC2ERKS0_PKNS_5RangeE","_cv_imencode_1","_cv_ximgproc_EdgeDrawing_getEdgeImage","_std_VecVecPoint2f_resize","__ZNK2cv3ocl6Device22errorCorrectionSupportEv","__ZN2cv8FileNodeC2Ev","_cv_Mat_patchNaNs","_cv_sqrt","__ZN2cv12VideoCaptureC2Eii","__ZN2cv17AVIWriteContainer15jputStreamShortEi","_cv_dnn_Net_readNetFromCaffe","__ZN2cv7MatExpr4swapERS0_","_cv_calibrateCamera","_cv_fillPoly_1","__ZN2cv3ocl13ProgramSourceaSERKS1_","__ZN2cv7quality11QualityGMSD6createERKNS_11_InputArrayE","_std_VecMat_new_1","_cv_MSER_setMaxArea","_cv_UMat_release","__ZN2cv3ocl18getOpenCLAllocatorEv","_cv_Mat_copyTo","_WebPPictureImportRGBX","_cv_flann_IndexParams_setAlgorithm","__ZN2cv6mulAddERKNS_10softdoubleES2_S2_","__ZN2cv3MatC1ERKNSt3__16vectorIiNS1_9allocatorIiEEEEiRKNS_7Scalar_IdEE","__ZN2cv5utils5trace7details12TraceManagerD2Ev","__ZN2cv6detail15SphericalWarper15detectResultRoiENS_5Size_IiEERNS_6Point_IiEES6_","__ZN2cv11_InputArrayC1ERKNS_7MatExprE","__ZN2cv11RNG_MT19937cvfEv","__ZNK2cv3ocl5Timer10durationNSEv","__ZN2cv3ocl7Program9getPrefixERKNSt3__112basic_stringIcNS2_11char_traitsIcEENS2_9allocatorIcEEEE","_cvMatchShapes","__ZN2cv17CascadeClassifierC2Ev","__ZN2cv3ocl12PlatformInfoC1EOS1_","_cv_StereoSGBM_getUniquenessRatio","_std_VecUChar_push_back","__ZN2cv9arcLengthERKNS_11_InputArrayEb","_std_VecVecDMatch_resize","__ZN2cv7vconcatEPKNS_3MatEmRKNS_12_OutputArrayE","_std_VecRotatedRect_push_back","_cv_SVD_backSubst","__ZN2cv3ocl12PlatformInfoC1EPv","__ZN2cv3ocl9KernelArg8ConstantERKNS_3MatE","_cv_UMat_clone","__ZN2cv6detail8tracking14TrackerSampler8samplingERKNS_3MatENS_5Rect_IiEE","__ZN2cv6plugin4impl10DynamicLibD1Ev","_cv_ximgproc_EdgeBoxes_getMinBoxArea","__ZN2cv3hal13addWeighted8uEPKhmS2_mPhmiiPv","__ZN2cv4readERKNS_8FileNodeERNSt3__16vectorINS_8KeyPointENS3_9allocatorIS5_EEEE","__ZN2cv3Mat4diagERKS0_","_cv_mean_1","__ZN2cv3dnn14dnn4_v202506193Net4Impl15getLayersShapesERKNSt3__16vectorINS5_IiNS4_9allocatorIiEEEENS6_IS8_EEEERNS4_3mapIiNS1_6detail11LayerShapesENS4_4lessIiEENS6_INS4_4pairIKiSF_EEEEEE","_std_VecF32_get","_cv_GFTTDetector_detectAndCompute","__ZN2cv17CascadeClassifierD1Ev","__ZN2cv3hal6sub16sEPKsmS2_mPsmiiPv","__ZN2cv3ocl6KernelC1EPKcRKNS0_13ProgramSourceERKNSt3__112basic_stringIcNS7_11char_traitsIcEENS7_9allocatorIcEEEEPSD_","__ZN2cv15groupRectanglesERNSt3__16vectorINS_5Rect_IiEENS0_9allocatorIS3_EEEEid","_cv_flann_IndexParams_create","__ZN2cv8Stitcher6stitchERKNS_11_InputArrayES3_RKNS_12_OutputArrayE","__ZN2cv8Subdiv2D6VertexC1ENS_6Point_IfEEbi","_cv_VideoCapture_read","__ZN2cv4UMatC1EiiiNS_14UMatUsageFlagsE","__ZN2cv12useOptimizedEv","__ZN2cv19FastFeatureDetector6createEibNS0_12DetectorTypeE","__ZN2cv10computeECCERKNS_11_InputArrayES2_S2_","_cv_ximgproc_RFFeatureGetter_close","_cv_Mat_op_mul_f64","_WebPPictureSmartARGBToYUVA","__ZN2cv6flipNDERKNS_11_InputArrayERKNS_12_OutputArrayEi","__ZN2cv6detail26BestOf2NearestRangeMatcherC2Eibfii","_std_VecVecPoint2f_free","_cv_fastNlMeansDenoising","__ZN2cv3MatC2ERKNSt3__16vectorIiNS1_9allocatorIiEEEEiPvPKm","__ZN2cv6detail12DpSeamFinder16computeGradientsERKNS_3MatES4_","_cv_aruco_detectorParameters_set_aprilTagMaxLineFitMse","__ZN2cv8calcHistERKNS_11_InputArrayERKNSt3__16vectorIiNS3_9allocatorIiEEEES2_RKNS_12_OutputArrayES9_RKNS4_IfNS5_IfEEEEb","__ZN2cv10AsyncArrayC1Ev","_cv_Mat_get_Vec3f","__ZN2cv3ocl13ProgramSourceC2ERKNSt3__112basic_stringIcNS2_11char_traitsIcEENS2_9allocatorIcEEEESA_SA_SA_","__ZN2cv16videoio_registry29getStreamBackendPluginVersionENS_16VideoCaptureAPIsERiS2_","__ZNK2cv3ocl6Device18globalMemCacheTypeEv","__ZN2cv17DescriptorMatcher5clearEv","_cv_StereoSGBM_getPreFilterCap","__ZNK2cv5aruco13ArucoDetector13getDictionaryEv","_std_VecDMatch_new_2","__ZNK2cv4UMat6getMatENS_10AccessFlagE","_cv_repeat","_cvGetThreadNum","_cvMoments","_cv_KAZE_setNOctaves","_std_VecF64_new_1","_cv_aruco_Dictionary_generateImageMarker","__ZN2cv3PCAclERKNS_11_InputArrayES3_id","__ZN2cv19QRCodeDetectorArucoC2Ev","_std_VecVecPoint_set","__ZN2cv8ximgproc20anisotropicDiffusionERKNS_11_InputArrayERKNS_12_OutputArrayEffi","__ZN2cv3dnn14dnn4_v202506193Net4Impl7forwardERKNS_12_OutputArrayERKNSt3__16vectorINS7_12basic_stringIcNS7_11char_traitsIcEENS7_9allocatorIcEEEENSC_ISE_EEEE","__ZN2cv16videoio_registry29getWriterBackendPluginVersionENS_16VideoCaptureAPIsERiS2_","__ZN2cv12VideoCaptureC1Ev","__ZN2cv3PCA4readERKNS_8FileNodeE","__ZN2cv4lineERKNS_17_InputOutputArrayENS_6Point_IiEES4_RKNS_7Scalar_IdEEiii","__ZN2cv3dnn14dnn4_v202506195Layer10initNgraphERKNSt3__16vectorINS_3PtrINS1_14BackendWrapperEEENS3_9allocatorIS7_EEEERKNS4_INS5_INS1_11BackendNodeEEENS8_ISE_EEEE","__ZN2cv3hal6exp32fEPKfPfi","__ZN2cv8Subdiv2D6locateENS_6Point_IfEERiS3_","__ZNK2cv10softdoubleltERKS0_","_std_VecVecPoint2f_extend","__ZN2cv16AVIReadContainer8skipJunkERNS_8RiffListE","__ZN2cv16videoio_registry17getStreamBackendsEv","_cvPtr3D","_cv_FastFeatureDetector_getNonmaxSuppression","_cvReleasePyramid","_std_VecF16_push_back","_cv_ximgproc_findEllipses","__ZN2cv3dnn14dnn4_v2025061922enableModelDiagnosticsEb","__ZN2cv17AVIWriteContainer14finishWriteAVIEv","__ZN2cv3dnn14dnn4_v202506193Net4Impl8getFLOPSERKNSt3__16vectorINS5_IiNS4_9allocatorIiEEEENS6_IS8_EEEE","_cv_GFTTDetector_detect","_cvFindGraphEdge","_cvSetSeqReaderPos","_std_VecDMatch_length","_cv_Stitcher_get_seamEstimationResol","__ZN2cv5writeERNS_11FileStorageERKNSt3__112basic_stringIcNS2_11char_traitsIcEENS2_9allocatorIcEEEERKNS2_6vectorINS_8KeyPointENS6_ISC_EEEE","_std_VecI64_shrink_to_fit","__ZN2cv4FASTERKNS_11_InputArrayERNSt3__16vectorINS_8KeyPointENS3_9allocatorIS5_EEEEibNS_19FastFeatureDetector12DetectorTypeE","__ZN2cv5utils7logging8internal22replaceWriteLogMessageEPFvNS1_8LogLevelEPKcE","_cv_meanStdDev_1","__ZN2cv11FileStorage4Impl6setEofEv","_std_VecVecPoint3f_get_ij","__ZN2cv6detail18GraphCutSeamFinderC1Eiff","__ZN2cv3hal6div16sEPKsmS2_mPsmiiPv","__ZN2cv7quality14QualityBRISQUE15computeFeaturesERKNS_11_InputArrayERKNS_12_OutputArrayE","__ZN2cv5utils2fs8FileLockD2Ev","__ZNK2cv11FileStorage4Impl9bufferEndEv","__ZN2cv3ocl14convertTypeStrEiiiPcm","__ZN2cv14extractChannelERKNS_11_InputArrayERKNS_12_OutputArrayEi","__ZN2cv5aruco19drawDetectedMarkersERKNS_17_InputOutputArrayERKNS_11_InputArrayES6_NS_7Scalar_IdEE","_cv_yuv420_888_to_nv21","_cv_aruco_detectorParameters_get_minMarkerPerimeterRate","_std_VecI16_extend","_WebPAnimDecoderGetNext","__ZNK2cv12_OutputArray7releaseEv","__ZTv0_n48_N2cv22SimpleBlobDetectorImpl4readERKNS_8FileNodeE","__ZN2cv3ocl6Kernel3setEiRKNS0_9KernelArgE","_cv_compareHist","_cvCreateSparseMat","_std_VecPoint3i_new_1","_std_VecMat_new","__ZN2cv6plugin4impl10DynamicLib11libraryLoadERKNSt3__112basic_stringIcNS3_11char_traitsIcEENS3_9allocatorIcEEEE","_std_VecF64_push_back","_cv_SIFT_setContrastThreshold","_std_VecVecPoint3f_new","_std_VecRotatedRect_new","__ZNK2cv3dnn14dnn4_v202506193Net8getFLOPSERKNSt3__16vectorIiNS3_9allocatorIiEEEE","_std_VecPoint2f_clear","__ZN2cv10AsyncArray7releaseEv","__ZNK2cv22SimpleBlobDetectorImpl9findBlobsERKNS_11_InputArrayES3_RNSt3__16vectorINS0_6CenterENS4_9allocatorIS6_EEEERNS5_INS5_INS_6Point_IiEENS7_ISC_EEEENS7_ISE_EEEERNS5_INS_7MomentsENS7_ISI_EEEE","__ZN2cv5randuERKNS_17_InputOutputArrayERKNS_11_InputArrayES5_","__ZN2cv3dnn14dnn4_v202506193Net4Impl12forwardAsyncERKNSt3__112basic_stringIcNS4_11char_traitsIcEENS4_9allocatorIcEEEE","__ZN2cv11FileStorage4Impl7addNodeERNS_8FileNodeERKNSt3__112basic_stringIcNS4_11char_traitsIcEENS4_9allocatorIcEEEEiPKvi","__ZN2cv15ImageCollection8iteratorppEi","__ZN2cv3MatC1Ev","_cvGetReal1D","_cv_Stitcher_set_waveCorrectKind","__ZNK2cv3dnn14dnn4_v202506193Net4Impl14getPerfProfileERNSt3__16vectorIdNS4_9allocatorIdEEEE","__ZN2cv17calibrateCameraROERKNS_11_InputArrayES2_NS_5Size_IiEEiRKNS_17_InputOutputArrayES7_RKNS_12_OutputArrayESA_SA_iNS_12TermCriteriaE","__ZNK2cv3ocl7Program9getBinaryERNSt3__16vectorIcNS2_9allocatorIcEEEE","__ZN2cv11linearPolarERKNS_11_InputArrayERKNS_12_OutputArrayENS_6Point_IfEEdi","__ZN2cv3LDAC1ERKNS_11_InputArrayES3_i","_std_VecVec4i_set","__ZN2cv5utils5trace7details15getTraceManagerEv","_cvCloneImage","_cv_dilate","__ZNK2cv3ocl6Device18deviceVersionMinorEv","_std_VecU8_free","__ZN2cv9rectangleERKNS_17_InputOutputArrayENS_5Rect_IiEERKNS_7Scalar_IdEEiii","_cv_MSER_getAreaThreshold","__ZN2cv3dnn14dnn4_v202506199GemmLayer6createERKNS1_11LayerParamsE","__ZNK2cv3ocl6Device22imageFromBufferSupportEv","_cv_MSER_getMaxEvolution","__ZNK2cv5aruco9GridBoard19getMarkerSeparationEv","__ZN2cv9SparseMatC2ERKNS_3MatE","__ZN2cv12reduceArgMaxERKNS_11_InputArrayERKNS_12_OutputArrayEib","_WebPAnimDecoderDelete","_cv_Mat_set_Vec2b","__ZN2cv17CascadeClassifier4readERKNS_8FileNodeE","__ZN2cv14fillConvexPolyERKNS_17_InputOutputArrayEPKNS_6Point_IiEEiRKNS_7Scalar_IdEEii","_cv_UMat_reshape","_cv_Mat_empty","_cv_Mat_total","__ZN2cv5aruco16RefineParametersC1Effb","__ZN2cv3ocl5Queue10getDefaultEv","_cvSetReal3D","__ZN2cv3ocl28predictOptimalVectorWidthMaxERKNS_11_InputArrayES3_S3_S3_S3_S3_S3_S3_S3_","_cv_StereoSGBM_setBlockSize","__ZN2cv6detail12DpSeamFinderC1ENSt3__112basic_stringIcNS2_11char_traitsIcEENS2_9allocatorIcEEEE","_cv_accumulatedWeighted","_cv_BRISK_detect","_cv_aruco_detectorParameters_set_minCornerDistanceRate","__ZNK2cv5MatOp8multiplyERKNS_7MatExprEdRS1_","__ZN2cv11VideoWriterD1Ev","_cv_KalmanFilter_get_temp4","__ZN2cv3dnn14dnn4_v202506193NetC2Ev","_cv_StereoBM_getSpeckleRange","__ZN2cv11arrowedLineERKNS_17_InputOutputArrayENS_6Point_IiEES4_RKNS_7Scalar_IdEEiiid","__ZNK2cv9softfloatcvNS_10softdoubleEEv","__ZNK2cv12_OutputArray10getUMatRefEi","_getBuildInfo","__ZN2cv3hal5and8uEPKhmS2_mPhmiiPv","_cv_GFTTDetector_getGradientSize","_std_VecPoint3f_set","_std_VecI8_new_2","__ZN2cv14findHomographyERKNS_11_InputArrayES2_RKNS_12_OutputArrayERKNS_10UsacParamsE","_cv_AgastFeatureDetector_create_1","__ZN2cv3Mat5zerosENS_5Size_IiEEi","_cv_CLAHE_collectGarbage","__ZNK2cv5aruco12CharucoBoard28checkCharucoCornersCollinearERKNS_11_InputArrayE","_cv_TrackerMIL_init","_cv_ORB_getDefaultName","_cv_UMat_handle","__ZN2cveoERKNS_3MatES2_","_cvPutText","_cv_initWideAngleProjMap","__ZN2cv5writeERNS_11FileStorageERKNSt3__112basic_stringIcNS2_11char_traitsIcEENS2_9allocatorIcEEEEx","_std_VecVec6f_extend","__ZN2cv4sqrtERKNS_11_InputArrayERKNS_12_OutputArrayE","_std_VecVec4f_length","__ZN2cv5utils2fs17getCacheDirectoryEPKcS3_","_WebPAnimDecoderNewInternal","__ZN2cv3dnn14dnn4_v2025061914blobFromImagesERKNS_11_InputArrayEdNS_5Size_IiEERKNS_7Scalar_IdEEbbi","__ZNK2cv10softdoubleplERKS0_","__ZN2cv6detail21check_failed_MatDepthEiRKNS0_12CheckContextE","__ZN2cv8Subdiv2D8QuadEdgeC2Ei","_cv_AKAZE_getNOctaves","_std_VecUChar_reserve","__ZNK2cv9SparseMat6copyToERS0_","_cvGetRectSubPix","_cv_PCABackProject","_cv_quality_QualitySSIM_compute_static","_cvProjectPCA","_cvSum","_cv_StereoSGBM_setMinDisparity","_std_VecI8_clear","__ZNK2cv3ocl6Device25imageBaseAddressAlignmentEv","_cvCornerEigenValsAndVecs","__ZN2cv3dnn14dnn4_v202506195LayerD1Ev","__ZN2cv3hal9absdiff8uEPKhmS2_mPhmiiPv","__ZN2cv5utils12findDataFileERKNSt3__112basic_stringIcNS1_11char_traitsIcEENS1_9allocatorIcEEEEbPKc","__ZN2cv3dnn14dnn4_v202506193NetD1Ev","__ZNK2cv9SparseMat4hashEi","_cv_UMat_createFunc","__ZN2cv9FormattedD1Ev","__ZN2cv6detail8tracking17TrackerSamplerCSCD1Ev","_cv_Mat_set_f64_3","__ZN2cv9magnitudeERKNS_11_InputArrayES2_RKNS_12_OutputArrayE","__ZNK2cv7MatSizeeqERKS0_","__ZN2cv4globENSt3__112basic_stringIcNS0_11char_traitsIcEENS0_9allocatorIcEEEERNS0_6vectorIS6_NS4_IS6_EEEEb","_cv_aruco_Dictionary_create_1","_cv_Mat_get_u16_1","_cv_FaceDetectorYN_setInputSize","__ZN2cv3dnn14dnn4_v2025061925getInferenceEngineCPUTypeEv","_std_VecKeyPoint_length","__ZNK2cv3ocl8Platform3ptrEv","__ZN2cv6detail12DpSeamFinderC2ENS1_12CostFunctionE","__ZN2cv5utils10BufferArea7releaseEv","_cvAndS","__ZN2cv9Feature2DD2Ev","_cv_Mat_cols","__ZN2cv12VideoCapture4openEiiRKNSt3__16vectorIiNS1_9allocatorIiEEEE","__ZN2cv17FlannBasedMatcher4readERKNS_8FileNodeE","__ZNK2cv9SparseMat4hashEii","__ZNK2cv12_OutputArray6createENS_5Size_IiEEiibNS0_9DepthMaskE","__ZN2cv3minERKNS_11_InputArrayES2_RKNS_12_OutputArrayE","__ZN2cvplERKNS_3MatES2_","_cv_CascadeClassifier_empty","__ZN2cv3dnn14dnn4_v2025061916NaryEltwiseLayer6createERKNS1_11LayerParamsE","_cv_ximgproc_rl_getStructuringElement","_cv_GFTTDetector_setBlockSize","__ZNK2cv3ocl22OpenCLExecutionContext4bindEv","__ZN2cv6detail23calibrateRotatingCameraERKNSt3__16vectorINS_3MatENS1_9allocatorIS3_EEEERS3_","_cvCheckArr","_std_VecF32_resize","__ZN2cv12VideoCapture4openERKNSt3__112basic_stringIcNS1_11char_traitsIcEENS1_9allocatorIcEEEEiRKNS1_6vectorIiNS5_IiEEEE","_std_VecMat_push_back","_cv_mulTransposed","_cv_getRotationMatrix2D","__ZN2cv16AVIReadContainer10initStreamENSt3__110shared_ptrINS_16VideoInputStreamEEE","__ZN9CvLevMarqC2Eii14CvTermCriteriab","_std_VecVecPoint2f_push_back","__ZNK2cv12_OutputArray4moveERNS_3MatE","__ZN2cv3dnn14dnn4_v2025061913blobFromImageERKNS_11_InputArrayEdRKNS_5Size_IiEERKNS_7Scalar_IdEEbbi","_std_VecVecPoint3i_clear","__ZN2cv5writeERNS_11FileStorageERKNSt3__112basic_stringIcNS2_11char_traitsIcEENS2_9allocatorIcEEEEi","_std_VecVecDMatch_get_p","__ZNK2cv8Subdiv2D7edgeOrgEiPNS_6Point_IfEE","__ZN2cv14QRCodeDetectorC1Ev","_cv_FlannBasedMatcher_create_1","_cv_Stitcher_set_waveCorrection","__ZN2cv6detail17CylindricalWarper9buildMapsENS_5Size_IiEERKNS_11_InputArrayES6_RKNS_12_OutputArrayES9_","_cv_quality_QualitySSIM_compute","__ZN2cv7momentsERKNS_11_InputArrayEb","_cv_wechat_qrcode_WeChatQRCode_detectAndDecode","__ZN2cv10UsacParamsC2Ev","__ZN2cv11VideoWriterC2ERKNSt3__112basic_stringIcNS1_11char_traitsIcEENS1_9allocatorIcEEEEiidNS_5Size_IiEEb","__ZN2cv3hal14polarToCart64fEPKdS2_PdS3_ib","__ZN2cv3dnn14dnn4_v2025061917InstanceNormLayer6createERKNS1_11LayerParamsE","_cv_contourArea","__ZN2cv6detail13ProjectorBase15setCameraParamsERKNS_11_InputArrayES4_S4_","__ZN2cv5utils2fs11isDirectoryERKNSt3__112basic_stringIcNS2_11char_traitsIcEENS2_9allocatorIcEEEE","_WebPAnimEncoderDelete","_std_VecVecPoint3i_free","__ZN2cv6detail25BlocksChannelsCompensator4feedERKNSt3__16vectorINS_6Point_IiEENS2_9allocatorIS5_EEEERKNS3_INS_4UMatENS6_ISB_EEEERKNS3_INS2_4pairISB_hEENS6_ISH_EEEE","_cvCalcArrBackProject","__ZN2cv8Stitcher15composePanoramaERKNS_11_InputArrayERKNS_12_OutputArrayE","_WebPMemoryWrite","_std_VecVecPoint3i_length_i","__ZNK2cv19QRCodeDetectorAruco21getDetectorParametersEv","_cvRunningAvg","__ZN2cv10hasNonZeroERKNS_11_InputArrayE","_cv_dnn_Net_forwardAsync","_cv_img_hash_radialVarianceHash_compare","__ZN2cv11RotatedRectC2ERKNS_6Point_IfEES4_S4_","_cvReleaseCapture","__ZNK2cv6detail8tracking17TrackerFeatureSet18getTrackerFeaturesEv","_cvSeqPushMulti","_cvDilate","__ZN2cv6detail13typeToString_Ei","__ZNK2cv3ocl7Context8ndevicesEv","_cv_FastFeatureDetector_create_1","_cv_Mat_op_add_f32","_cv_spatialGradient","__ZNK2cv11FileStorage8isOpenedEv","__ZNK2cv3ocl6Device19imagePitchAlignmentEv","__ZN2cv16AVIReadContainer10initStreamERKNSt3__112basic_stringIcNS1_11char_traitsIcEENS1_9allocatorIcEEEE","__ZN2cv5aruco5BoardC1ERKNS_11_InputArrayERKNS0_10DictionaryES4_","__ZN2cv17DescriptorMatcher6createERKNS0_11MatcherTypeE","__ZN2cv4UMatC1ENS_5Size_IiEEiNS_14UMatUsageFlagsE","_cv_KalmanFilter_init_1","__ZN2cv5aruco9GridBoardC1ERKNS_5Size_IiEEffRKNS0_10DictionaryERKNS_11_InputArrayE","__ZN2cv5writeERNS_11FileStorageERKNSt3__112basic_stringIcNS2_11char_traitsIcEENS2_9allocatorIcEEEESA_","_cv_ximgproc_GraphSegmentation_getK","__ZNK2cv9Feature2D11defaultNormEv","_cv_exp","__ZNK2cv3ORB14getDefaultNameEv","__ZN2cv7details23restoreFPDenormalsStateERKNS0_20FPDenormalsModeStateE","__ZN2cv3hal14cvtBGRtoBGR5x5EPKhmPhmiiibi","_WebPDemuxReleaseIterator","_cv_HoughLines","__ZN2cv6imreadERKNSt3__112basic_stringIcNS0_11char_traitsIcEENS0_9allocatorIcEEEEi","__ZN2cv8img_hash15ColorMomentHash6createEv","__ZN2cv3ocl7Image2DC2Ev","_cv_Mat_setTo","__ZN2cv11FileStorage4Impl13Base64Decoder4initERKNS_3PtrINS_17FileStorageParserEEEPci","__ZN2cv3sinERKNS_10softdoubleE","__ZN2cv7fisheye15stereoCalibrateERKNS_11_InputArrayES3_S3_RKNS_17_InputOutputArrayES6_S6_S6_NS_5Size_IiEERKNS_12_OutputArrayESB_iNS_12TermCriteriaE","_cv_CLAHE_getClipLimit","__ZN2cv9FormatterD0Ev","__ZN2cv14QRCodeDetectorC2Ev","__ZN2cv5utils2fs9getParentERKNSt3__112basic_stringIwNS2_11char_traitsIwEENS2_9allocatorIwEEEE","_cvErrorFromIppStatus","_cvGuiBoxReport","_cvSeqPush","_cv_ximgproc_GraphSegmentation_processImage","_cv_KalmanFilter_set_transitionMatrix","__ZN2cv3expERKNS_11_InputArrayERKNS_12_OutputArrayE","__ZNK2cv9Algorithm14getDefaultNameEv","__ZN2cv13setNumThreadsEi","__ZN9CvLevMarq5clearEv","__ZN2cv9SparseMataSERKNS_3MatE","__ZN2cv17FlannBasedMatcher5trainEv","__ZN2cv12VideoCaptureC1EiiRKNSt3__16vectorIiNS1_9allocatorIiEEEE","__ZN2cv3ocl28getOpenCLAllocatorStatisticsEv","__ZN2cv8Stitcher11matchImagesEv","_cv_MSER_setMinDiversity","__ZN2cv11VideoWriterC1ERKNSt3__112basic_stringIcNS1_11char_traitsIcEENS1_9allocatorIcEEEEiidNS_5Size_IiEEb","__ZN2cv25decomposeProjectionMatrixERKNS_11_InputArrayERKNS_12_OutputArrayES5_S5_S5_S5_S5_S5_","__ZN2cv3hal10absdiff32fEPKfmS2_mPfmiiPv","__ZN2cv3dnn14dnn4_v202506195LayerC2ERKNS1_11LayerParamsE","__ZNK2cv8FileNode6stringEv","_cv_flann_IndexParams_close","_cv_mulSpectrums","_cv_sepFilter2D","_std_VecVec4i_new_2","_cv_img_hash_averageHash_compare","_cv_add","_cvSetReal2D","_cv_Mat_set_Vec2i","__ZN2cv3hal11fastAtan32fEPKfS2_Pfib","_setLogCallbackEx","__ZN2cv3hal6add16uEPKtmS2_mPtmiiPv","_std_VecChar_reserve","_cv_ximgproc_RFFeatureGetter_empty","__ZN2cv3hal5DFT2D6createEiiiiiii","_std_VecF64_free","__ZN2cv5aruco13ArucoDetector19setRefineParametersERKNS0_16RefineParametersE","__ZN2cv5utils30getConfigurationParameterSizeTEPKcm","_cv_BackgroundSubtractorKNN_close","__ZN2cv3hal6cmp16sEPKsmS2_mPhmiiPv","_cv_Mat_create_7","__ZN2cv13wechat_qrcode12WeChatQRCode4Impl13applyDetectorERKNS_3MatERNSt3__16vectorIS3_NS6_9allocatorIS3_EEEE","_cv_dnn_getBlobSize","_std_VecVecPoint_data","_std_VecU32_data","__ZNK2cv8FileNode5isSeqEv","__ZN2cv17AVIWriteContainer10writeIndexEiNS_10StreamTypeE","__ZN2cvmiERKNS_7Scalar_IdEERKNS_3MatE","_cv_StereoBM_setBlockSize","_std_VecVec6f_push_back","_cv_CLAHE_close","_std_VecVecPoint_new_1","_cv_HOGDescriptor_detect2","_cv_SVD_Compute","__ZN2cv17CascadeClassifierC1Ev","__ZNK2cv3ocl6Device4nameEv","_cv_GFTTDetector_create","__ZN2cv3LDAC2ERKNS_11_InputArrayES3_i","_cvGoodFeaturesToTrack","__ZN2cv3dnn14dnn4_v202506193Net4ImplD1Ev","__ZN2cv3dnn14dnn4_v202506193Net8quantizeERKNS_11_InputArrayEiib","__ZN2cv8ximgproc2rl22isRLMorphologyPossibleERKNS_11_InputArrayE","_std_VecU64_resize","_cv_Mat_set_f32_3","__ZN2cv7quality14QualityBRISQUE6createERKNS_3PtrINS_2ml3SVMEEERKNS_3MatE","__ZN2cv16FileNodeIteratorpLEi","__ZN2cv3ocl7Context7getProgERKNS0_13ProgramSourceERKNSt3__112basic_stringIcNS5_11char_traitsIcEENS5_9allocatorIcEEEERSB_","__ZN2cv15groupRectanglesERNSt3__16vectorINS_5Rect_IiEENS0_9allocatorIS3_EEEEidPNS1_IiNS4_IiEEEEPNS1_IdNS4_IdEEEE","_WebPDemuxGetChunk","__ZN2cv9Feature2D4readERKNSt3__112basic_stringIcNS1_11char_traitsIcEENS1_9allocatorIcEEEE","__ZN2cv17rectify3CollinearERKNS_11_InputArrayES2_S2_S2_S2_S2_S2_S2_NS_5Size_IiEES2_S2_S2_S2_RKNS_12_OutputArrayES7_S7_S7_S7_S7_S7_dS4_PNS_5Rect_IiEESA_i","__ZN2cv3ocl5QueueC1Ev","_cv_MSER_setMinMargin","__ZN2cv3dnn14dnn4_v2025061915ReciprocalLayer6createERKNS1_11LayerParamsE","_cv_aruco_detectorParameters_set_cornerRefinementMethod","__ZN2cv3dnn14dnn4_v202506193Net7forwardERKNS_12_OutputArrayERKNSt3__16vectorINS6_12basic_stringIcNS6_11char_traitsIcEENS6_9allocatorIcEEEENSB_ISD_EEEE","__ZN2cv3dnn14dnn4_v202506199LSTMLayer17outputNameToIndexERKNSt3__112basic_stringIcNS3_11char_traitsIcEENS3_9allocatorIcEEEE","_cv_StereoBM_setPreFilterType","_std_VecVec6f_free","_cv_threshold","__ZNK2cv3ocl6Device15image3DMaxWidthEv","__ZN2cv19QRCodeDetectorAruco6ParamsC1Ev","__ZN2cv9BFMatcherC1Eib","_std_VecF64_set","_cv_StereoSGBM_setDisp12MaxDiff","__ZNK2cv10AsyncArray8wait_forEx","__ZN2cv3ocl6KernelC1Ev","__ZN2cv12divSpectrumsERKNS_11_InputArrayES2_RKNS_12_OutputArrayEib","__ZN2cv3ocl6DeviceC1Ev","__ZNK2cv3dnn14dnn4_v202506193Net4Impl7getBlobERKNS1_6detail8LayerPinE","__ZN2cv9HuMomentsERKNS_7MomentsERKNS_12_OutputArrayE","__ZN2cv3dnn14dnn4_v2025061910RoundLayer6createERKNS1_11LayerParamsE","__ZN2cv10StereoSGBM6createEiiiiiiiiiii","__ZN2cv6detail17check_failed_autoERKNSt3__112basic_stringIcNS1_11char_traitsIcEENS1_9allocatorIcEEEERKNS0_12CheckContextE","__ZN2cv4readERKNS_8FileNodeERdd","_cv_aruco_detectorParameters_set_perspectiveRemovePixelPerCell","__ZNK2cv6detail8tracking12TrackerModel20getLastConfidenceMapEv","_std_VecVecPoint2f_get_ij","__ZN2cv3hal11SepFilter2D6createEiiiPhiS2_iiidi","__ZNK2cv11_InputArray4rowsEi","__ZN2cv3dnn14dnn4_v2025061911ResizeLayer6createERKNS1_11LayerParamsE","_cv_Stitcher_close","_cv_quality_QualityPSNR_setMaxPixelValue","__ZN2cv6detail20computeImageFeaturesERKNS_3PtrINS_9Feature2DEEERKNS_11_InputArrayERNS0_13ImageFeaturesES8_","__ZN2cv5flann5Index9knnSearchERKNS_11_InputArrayERKNS_12_OutputArrayES7_iRKNS0_12SearchParamsE","_cv_SIFT_create","__ZN2cv3hal11fastAtan64fEPKdS2_Pdib","__ZN2cv6detail8tracking14TrackerSamplerD2Ev","__ZN2cvmlEdRKNS_7MatExprE","__ZN2cv17validateDisparityERKNS_17_InputOutputArrayERKNS_11_InputArrayEiii","__ZNK2cv3ocl22OpenCLExecutionContext17cloneWithNewQueueERKNS0_5QueueE","_cv_HOGDescriptor_compute","_cv_SimpleBlobDetector_detectAndCompute","__ZN2cv6detail27BundleAdjusterAffinePartial9calcErrorERNS_3MatE","_cv_findEssentialMat","__ZN2cv10UsacParamsC1Ev","_cv_Mat_mean","_cv_HOGDescriptor_getDefaultPeopleDetector","_cv_VideoWriter_release","__ZN2cv3dnn14dnn4_v202506193Net4Impl7forwardERKNS_12_OutputArrayERKNSt3__112basic_stringIcNS7_11char_traitsIcEENS7_9allocatorIcEEEE","_cv_quality_QualityPSNR_create","_cv_Mat_create_4","__ZN2cv6detail12DpSeamFinder12estimateSeamERKNS_3MatES4_NS_6Point_IiEES6_iS6_S6_RNSt3__16vectorIS6_NS7_9allocatorIS6_EEEERb","__ZNK2cv3dnn14dnn4_v202506193Net14getLayerInputsEi","_cv_FaceDetectorYN_close","_std_VecPoint3i_clear","_std_VecRect2f_extend","__ZN2cv5utils5trace7details12TraceManager11isActivatedEv","__ZN2cvplERKNS_3MatERKNS_7MatExprE","_WebPPictureSharpARGBToYUVA","__ZN2cv3hal8integralEiiiPKhmPhmS3_mS3_miii","_cvFindNextContour","_cvNextNArraySlice","__ZN2cv6detail17VoronoiSeamFinder4findERKNSt3__16vectorINS_4UMatENS2_9allocatorIS4_EEEERKNS3_INS_6Point_IiEENS5_ISB_EEEERS7_","_cv_UMat_empty","__ZN2cv3dnn14dnn4_v2025061911ReduceLayer6createERKNS1_11LayerParamsE","__ZN2cv7quality14QualityBRISQUEC2ERKNSt3__112basic_stringIcNS2_11char_traitsIcEENS2_9allocatorIcEEEESA_","__ZNK2cv3ocl6Device13globalMemSizeEv","__ZN2cv13IStreamReaderD1Ev","_cv_circle","__ZN2cv8SVDecompERKNS_11_InputArrayERKNS_12_OutputArrayES5_S5_i","__ZN2cv17DescriptorMatcher20DescriptorCollectionD2Ev","_WebPAnimEncoderAssemble","_cvExp","__ZN2cv5utils5trace7details6Region4Impl14registerRegionERNS2_23TraceManagerThreadLocalE","_std_VecKeyPoint_get_p","__ZN2cv26convertPointsToHomogeneousERKNS_11_InputArrayERKNS_12_OutputArrayE","__ZN2cv3dnn14dnn4_v2025061921readNetFromTensorflowERKNSt3__16vectorIhNS2_9allocatorIhEEEES8_","_cvRawDataToScalar","_std_VecF64_clone","_cvNormalizeHist","_cv_FaceRecognizerSF_feature","_std_VecPoint_data","_cv_cvtColor","_cv_Mat_data","__ZN2cv21findChessboardCornersERKNS_11_InputArrayENS_5Size_IiEERKNS_12_OutputArrayEi","__ZNK2cv3ocl6Device15maxComputeUnitsEv","__ZN2cv3ocl7ProgramD1Ev","_std_VecVecPoint2f_new_2","__ZN2cv16findEssentialMatERKNS_11_InputArrayES2_S2_iddRKNS_12_OutputArrayE","__ZN2cv5flann11IndexParamsC1Ev","__ZN2cv6imreadERKNSt3__112basic_stringIcNS0_11char_traitsIcEENS0_9allocatorIcEEEERKNS_12_OutputArrayEi","__ZNK2cv8FileNodeixEPKc","__ZN2cv3dnn14dnn4_v2025061916ConvolutionLayer6createERKNS1_11LayerParamsE","_cv_UMat_mul","__ZN2cv3dnn14dnn4_v202506193Net4Impl8quantizeERS2_RKNS_11_InputArrayEiib","_cv_aruco_detectorParameters_set_cornerRefinementWinSize","_cv_flip","_cv_minMaxLoc","_cv_aruco_detectorParameters_set_minMarkerPerimeterRate","__ZN2cv15bilateralFilterERKNS_11_InputArrayERKNS_12_OutputArrayEiddi","_cv_aruco_detectorParameters_get_cornerRefinementWinSize","_cv_quality_QualityMSE_close","__ZNK2cv3PCA5writeERNS_11FileStorageE","__ZNK2cv7MatExpr3rowEi","_std_VecKeyPoint_set","__ZN2cv22SimpleBlobDetectorImpl6detectERKNS_11_InputArrayERNSt3__16vectorINS_8KeyPointENS4_9allocatorIS6_EEEES3_","_std_VecVecPoint3f_clear","_std_VecVec4i_new_1","__ZN2cv3dnn14dnn4_v202506198ArgLayer6createERKNS1_11LayerParamsE","__ZN2cvmlERKNS_7MatExprES2_","__ZN2cv3dnn14dnn4_v202506193Net4Impl5clearEv","__ZN2cv6detail12AffineWarper17warpPointBackwardERKNS_6Point_IfEERKNS_11_InputArrayES8_","_cvNot","_cv_boxFilter","_std_VecI32_extend","__ZN2cv11RNG_MT199377uniformEii","__ZN2cv8solvePnPERKNS_11_InputArrayES2_S2_S2_RKNS_12_OutputArrayES5_bi","__ZNK2cv5aruco13ArucoDetector19getRefineParametersEv","__ZTv0_n72_NK2cv4MSER14getDefaultNameEv","__ZN2cv15stereoCalibrateERKNS_11_InputArrayES2_S2_RKNS_17_InputOutputArrayES5_S5_S5_NS_5Size_IiEES5_S5_RKNS_12_OutputArrayESA_SA_SA_SA_iNS_12TermCriteriaE","__ZN2cv3dnn14dnn4_v2025061917readNetFromTFLiteEPKcm","__ZN2cv4UMat6createERKNSt3__16vectorIiNS1_9allocatorIiEEEEiNS_14UMatUsageFlagsE","__ZN2cv3dnn14dnn4_v202506193Net4ImplD0Ev","_cv_min","_cv_Mat_op_add_u16","_std_VecI64_free","_std_VecRect2f_new_1","_std_VecVecDMatch_length","_std_VecVec4f_get","__ZNK2cv18SimpleBlobDetector6Params5writeERNS_11FileStorageE","_cv_ximgproc_EdgeBoxes_close","_std_VecU16_new","_cv_ximgproc_EdgeBoxes_setBeta","__ZN2cv3ocl9useOpenCLEv","__ZN2cv15haveImageWriterERKNSt3__112basic_stringIcNS0_11char_traitsIcEENS0_9allocatorIcEEEE","__ZN2cv3dnn14dnn4_v202506193Net4Impl8addLayerERKNSt3__112basic_stringIcNS4_11char_traitsIcEENS4_9allocatorIcEEEESC_RKiRNS1_11LayerParamsE","__ZN2cv10AsyncArrayC1ERKS0_","__ZN2cv3PCAC2ERKNS_11_InputArrayES3_ii","_cv_convertPointsToHomogeneous","__ZNK2cv8FileNode7readRawERKNSt3__112basic_stringIcNS1_11char_traitsIcEENS1_9allocatorIcEEEEPvm","__ZNK2cv17DescriptorMatcher20DescriptorCollection4sizeEv","_cvCreateVideoWriter","__ZN2cv8tempfileEPKc","_std_VecI8_shrink_to_fit","_cvMax","__ZN2cv3MatC1EiiiRKNS_7Scalar_IdEE","_cvGetOptimalDFTSize","_cv_fastNlMeansDenoisingColored","__ZN2cv5utils5trace7details6RegionC1ERKNS3_21LocationStaticStorageE","_cv_Stitcher_get_waveCorrection","_cv_idft","__ZN2cv17FlannBasedMatcher6createEv","_cv_SIFT_create_1","__ZN2cv17FlannBasedMatcherC1ERKNS_3PtrINS_5flann11IndexParamsEEERKNS1_INS2_12SearchParamsEEE","_std_VecU16_resize","__ZN2cv3dnn14dnn4_v2025061915NMSBoxesBatchedERKNSt3__16vectorINS_5Rect_IdEENS2_9allocatorIS5_EEEERKNS3_IfNS6_IfEEEERKNS3_IiNS6_IiEEEEffRSG_fi","__ZN2cv3Mat5zerosEiii","__ZN2cv3hal3logEPKfPfi","_cv_FastFeatureDetector_detectAndCompute","_cv_StereoSGBM_setSpeckleRange","__ZNK2cv6detail17BundleAdjusterRay25obtainRefinedCameraParamsERNSt3__16vectorINS0_12CameraParamsENS2_9allocatorIS4_EEEE","__ZN2cv12GFTTDetector6createEiddibd","_cv_warpAffine_1","__ZN2cv9SparseMataSERKS0_","__ZN2cv15ImageCollection8iteratorppEv","__ZN2cv6detail8tracking17TrackerFeatureSetC1Ev","__ZN2cv3hal8recip64fEPKdmS2_mPdmiiPv","_cv_Mat_create_3","_cv_findHomography","__ZNK2cv13HOGDescriptor19detectMultiScaleROIERKNS_11_InputArrayERNSt3__16vectorINS_5Rect_IiEENS4_9allocatorIS7_EEEERNS5_INS_12DetectionROIENS8_ISC_EEEEdi","_std_VecF64_data","__ZN2cv3Mat6createEiPKii","__ZNK2cv5aruco13ArucoDetector15getDictionariesEv","_cv_haveImageWriter","_cvRectangle","_std_VecVecPoint3i_new_1","__ZN2cv6detail21check_failed_MatDepthEiiRKNS0_12CheckContextE","__ZN2cv6detail8tracking17TrackerFeatureSet17addTrackerFeatureERKNS_3PtrINS1_14TrackerFeatureEEE","__ZNK2cv3dnn14dnn4_v202506193Net28getUnconnectedOutLayersNamesEv","__ZN2cv8Subdiv2D7newEdgeEv","__ZN2cv3dnn14dnn4_v2025061910ReLU6Layer6createERKNS1_11LayerParamsE","_cv_dnn_getAvailableBackends","_cv_KalmanFilter_get_processNoiseCov","__ZN2cv3dnn14dnn4_v2025061911ExpandLayer6createERKNS1_11LayerParamsE","__ZN2cv8KeyPoint7convertERKNSt3__16vectorINS_6Point_IfEENS1_9allocatorIS4_EEEERNS2_IS0_NS5_IS0_EEEEffii","__ZN2cv3ocl7Context11UserContextD2Ev","_cvCountNonZero","__ZN2cvmlERKNS_7MatExprERKNS_3MatE","_cv_AKAZE_getDescriptorSize","_cv_solvePnPRansac","__ZNK2cv13HOGDescriptor9detectROIERKNS_11_InputArrayERKNSt3__16vectorINS_6Point_IiEENS4_9allocatorIS7_EEEERSA_RNS5_IdNS8_IdEEEEdNS_5Size_IiEESI_","_cvCanny","__ZN2cv6detail8tracking14TrackerFeatureD1Ev","__ZN2cv15ImageCollection2atEi","_cv_fitLine","__ZN2cv9softfloatC1Ex","_std_VecRect2f_new","__ZN2cv3dnn14dnn4_v202506199GeluLayer6createERKNS1_11LayerParamsE","__ZN2cv11bitwise_xorERKNS_11_InputArrayES2_RKNS_12_OutputArrayES2_","_cv_FastFeatureDetector_detect","_std_VecPoint3i_length","_cv_putText","__ZN2cv3dnn14dnn4_v2025061912CompareLayer6createERKNS1_11LayerParamsE","__ZNK2cv21GraphicalCodeDetector15detectAndDecodeERKNS_11_InputArrayERKNS_12_OutputArrayES6_","_cv_estimateTranslation3D","__ZN2cv11transposeNDERKNS_11_InputArrayERKNSt3__16vectorIiNS3_9allocatorIiEEEERKNS_12_OutputArrayE","_std_VecPoint2f_set","_cv_UMat_convertTo","_cv_aruco_detectorParameters_get_adaptiveThreshWinSizeMin","__ZN2cv4readERKNS_8FileNodeERii","__ZN2cv6detail8tracking17TrackerSamplerCSCD0Ev","__ZN2cv11FileStorageC1ERKNSt3__112basic_stringIcNS1_11char_traitsIcEENS1_9allocatorIcEEEEiS9_","__ZN2cv3dnn14dnn4_v2025061916Image2BlobParamsC1Ev","__ZN2cv8ximgproc2rl5paintERKNS_17_InputOutputArrayERKNS_11_InputArrayERKNS_7Scalar_IdEE","__ZNK2cv3Mat3invEi","_cv_aruco_detectorParameters_get_perspectiveRemovePixelPerCell","_WebPGetDecoderVersion","_std_VecPoint3f_new_1","__ZN2cv3Mat9push_backERKS0_","__ZN2cv3hal6mul32sEPKimS2_mPimiiPv","__ZN2cv3dnn14dnn4_v202506198NMSBoxesERKNSt3__16vectorINS_5Rect_IdEENS2_9allocatorIS5_EEEERKNS3_IfNS6_IfEEEEffRNS3_IiNS6_IiEEEEfi","__ZNK2cv3PCA11backProjectERKNS_11_InputArrayERKNS_12_OutputArrayE","_cv_KAZE_setExtended","_cv_GFTTDetector_setQualityLevel","_std_VecI8_set","_cv_CascadeClassifier_detectMultiScale_1","__ZNK2cv8FileNode6isRealEv","__ZNK2cv3ocl7Program5writeERNSt3__112basic_stringIcNS2_11char_traitsIcEENS2_9allocatorIcEEEE","_std_VecI16_push_back","__ZN2cv3powERKNS_11_InputArrayEdRKNS_12_OutputArrayE","__ZNK2cv12_OutputArray6createEiiiibNS0_9DepthMaskE","__ZN2cv3ocl7ProgramC2ERKNS0_13ProgramSourceERKNSt3__112basic_stringIcNS5_11char_traitsIcEENS5_9allocatorIcEEEERSB_","_cvCreateMatHeader","_cv_Laplacian","_cvGetDimSize","__ZN2cv3dnn14dnn4_v202506193Net4Impl19setPreferableTargetEi","__ZNK2cv3dnn14dnn4_v202506193Net8getLayerERKNS1_9DictValueE","__ZN2cv15stereoCalibrateERKNS_11_InputArrayES2_S2_RKNS_17_InputOutputArrayES5_S5_S5_NS_5Size_IiEERKNS_12_OutputArrayESA_SA_SA_iNS_12TermCriteriaE","__ZN2cv3dnn14dnn4_v202506193Net4Impl12forwardLayerERNS1_6detail9LayerDataE","__ZN2cv4UMat20updateContinuityFlagEv","__ZN2cv15imreadanimationERKNSt3__112basic_stringIcNS0_11char_traitsIcEENS0_9allocatorIcEEEERNS_9AnimationEii","_cv_dnn_Net_readNetFromTorch","_std_VecI16_new","_cv_Mat_locateROI","__ZNK2cv3ocl22OpenCLExecutionContext17cloneWithNewQueueEv","_cv_UMat_depth","_cv_Mat_get_f64_3","__ZNK2cv11FileStorage20getFirstTopLevelNodeEv","_cv_AKAZE_detect","_cv_checkRange","__ZN2cv10softdoubleC1Ex","__ZNK2cv12_OutputArray5clearEv","_cvSolvePoly","__ZN2cv3dnn14dnn4_v2025061910ScaleLayer6createERKNS1_11LayerParamsE","__ZN2cv5utils11getThreadIDEv","_cv_quality_QualityBRISQUE_create","_cv_Mat_ptr_uchar_2","_WebPEncodeBGRA","__ZN2cv3powERKNS_10softdoubleES2_","_cvGet2D","__ZN2cv3dnn14dnn4_v2025061914BatchNormLayer6createERKNS1_11LayerParamsE","__ZN2cv3dnn14dnn4_v2025061916Image2BlobParamsC2ERKNS_7Scalar_IdEERKNS_5Size_IiEES6_biNS1_10DataLayoutENS1_16ImagePaddingModeES4_","__ZN2cv6detail18GraphCutSeamFinder4Impl20setGraphWeightsColorERKNS_3MatES5_S5_S5_RNS0_7GCGraphIfEE","__ZN7cvflann17set_distance_typeENS_16flann_distance_tEi","__ZN2cv18createMergeDebevecEv","__ZNK2cv10softdoublemlERKS0_","__ZN2cv9transformERKNS_11_InputArrayERKNS_12_OutputArrayES2_","__ZN2cv6detail8tracking11ClfMilBoost4initERKNS2_6ParamsE","_cv_Mat_get_i8_3","__ZNK2cv4UMat7reshapeEii","_cv_AKAZE_setNOctaves","__ZN2cv3dnn14dnn4_v2025061916Image2BlobParams19blobRectToImageRectERKNS_5Rect_IiEERKNS_5Size_IiEE","__ZNK2cv3ocl6Device15maxMemAllocSizeEv","__ZN2cv3MatC2EiiiPvm","_cv_Mat_set_f32_2","__ZNK2cv6detail8tracking32TrackerStateEstimatorMILBoosting21TrackerMILTargetState10isTargetFgEv","_std_VecU32_resize","_cvCloneMat","__ZN2cv3ocl22OpenCLExecutionContext6createERKNS0_7ContextERKNS0_6DeviceE","_cv_blur","_std_VecRect_extend","__ZN2cv3hal6min16uEPKtmS2_mPtmiiPv","_cv_recoverPose_1","__ZN2cv9SparseMat3ptrEiibPm","__ZN2cvmiERKNS_3MatERKNS_7MatExprE","__ZN2cv3hal6SVD64fEPdmS1_S1_mS1_miii","_cv_SIFT_empty","__ZN2cv3Mat6createERKNSt3__16vectorIiNS1_9allocatorIiEEEEi","__ZN2cv16FileNodeIteratorC2ERKS0_","__ZN2cv17DescriptorMatcher20DescriptorCollectionC1Ev","_WebPInitDecoderConfigInternal","__ZN2cv4readERKNS_8FileNodeERNS_6DMatchERKS3_","_cvReleaseMemStorage","_cv_CascadeClassifier_isOldFormatCascade","_cvSeqSlice","__ZN2cv11RNG_MT19937C1Ej","__ZN2cv16getVersionStringEv","_cv_ximgproc_EdgeBoxes_setMinScore","__ZN2cv23allocSingletonNewBufferEm","__ZN2cv6detail15GainCompensator5applyEiNS_6Point_IiEERKNS_17_InputOutputArrayERKNS_11_InputArrayE","__ZN2cv8Subdiv2D6VertexC1Ev","__ZNK2cv17DescriptorMatcher8knnMatchERKNS_11_InputArrayES3_RNSt3__16vectorINS5_INS_6DMatchENS4_9allocatorIS6_EEEENS7_IS9_EEEEiS3_b","_cv_Mat_op_sub_i8","_cv_aruco_detectorParameters_get_adaptiveThreshConstant","__ZN2cv13wechat_qrcode12WeChatQRCode4Impl7cropObjERKNS_3MatES5_RNS0_5AlignE","_cv_isContourConvex2f","__ZNK2cv11_InputArray7getUMatEi","_cv_StereoBM_setROI2","__ZN2cv3hal7gemm32fEPKfmS2_mfS2_mfPfmiiii","_cvSet","_cv_Mat_set_u8_3","_std_VecU64_extend","_cvConvexityDefects","_cv_UMat_create_7","__ZN2cv11FileStorage4Impl5getFSEv","__ZN2cv6plugin4impl10DynamicLibC1ERKNSt3__112basic_stringIcNS3_11char_traitsIcEENS3_9allocatorIcEEEE","__ZN2cv8img_hash11ImgHashBaseD2Ev","__ZN2cv9SparseMatC1EiPKii","_std_VecF16_extend","_std_VecVecPoint_length_i","__ZN2cv8img_hash18RadialVarianceHash13getProjectionEv","__ZN2cv5utils7logging11getLogLevelEv","__ZN2cv6detail9resultRoiERKNSt3__16vectorINS_6Point_IiEENS1_9allocatorIS4_EEEERKNS2_INS_4UMatENS5_ISA_EEEE","__ZN2cv3Mat6addrefEv","__ZN2cv6detail18BundleAdjusterBase8estimateERKNSt3__16vectorINS0_13ImageFeaturesENS2_9allocatorIS4_EEEERKNS3_INS0_11MatchesInfoENS5_ISA_EEEERNS3_INS0_12CameraParamsENS5_ISF_EEEE","__ZN2cv5aruco5BoardC2ERKNS_3PtrINS1_4ImplEEE","__ZNK2cv11FileStorage4Impl9bufferPtrEv","__ZNK2cv8FileNode3matEv","__ZN2cv3hal7sqrt64fEPKdPdi","__ZNK2cv14DefaultDeleterI9CvCaptureEclEPS1_","_std_VecI8_clone","_cv_PCAProject","_cv_VideoCapture_set","_cv_xobjdetect_WBDetector_create","__ZN2cv3dnn14dnn4_v2025061917SpaceToDepthLayer6createERKNS1_11LayerParamsE","_cvCreateHist","__ZN2cv3MatC2Eiii","_cv_Stitcher_stitch_1","_cv_ximgproc_EdgeBoxes_setGamma","__ZN2cv3maxERKNS_3MatES2_RS0_","_cv_UMat_close","_std_VecF16_resize","__ZN2cv12KalmanFilter7predictERKNS_3MatE","__ZN2cv17triangulatePointsERKNS_11_InputArrayES2_S2_S2_RKNS_12_OutputArrayE","__ZN2cv15ImageCollectionC1Ev","__ZN2cv8LMSolver6createERKNS_3PtrINS0_8CallbackEEEi","__ZNK2cv5aruco5Board4Impl13generateImageENS_5Size_IiEERKNS_12_OutputArrayEii","_cv_Mat_get_Vec2w","_cvGetTickFrequency","_cvXor","_cv_AKAZE_setMaxPoints","__ZN2cv3dnn14dnn4_v202506198TanLayer6createERKNS1_11LayerParamsE","_cv_QRCodeDetector_detectAndDecode","_cv_meanStdDev","__ZNK2cv3ocl6Device7versionEv","__ZN2cv3Mat20updateContinuityFlagEv","__ZNK2cv3ocl6Device12halfFPConfigEv","_cvSeqPopMulti","__ZN2cv6seqPopEP5CvSeqPv","_cv_pencilSketch","__ZN2cv3MatC2ERKS0_RKNSt3__16vectorINS_5RangeENS3_9allocatorIS5_EEEE","_cv_SimpleBlobDetector_getParams","__ZN2cv23getPerspectiveTransformERKNS_11_InputArrayES2_i","__ZN2cv11RNG_MT199377uniformEff","__ZN2cv3dnn14dnn4_v202506199CoshLayer6createERKNS1_11LayerParamsE","__ZN2cv6detail20focalsFromHomographyERKNS_3MatERdS4_RbS5_","__ZN2cv3dnn14dnn4_v202506193Net4Impl20getMemoryConsumptionERKNSt3__16vectorINS5_IiNS4_9allocatorIiEEEENS6_IS8_EEEERmSD_","_cv_CascadeClassifier_detectMultiScale_3","__ZN2cv6detail18GraphCutSeamFinder4Impl4findERKNSt3__16vectorINS_4UMatENS3_9allocatorIS5_EEEERKNS4_INS_6Point_IiEENS6_ISC_EEEERS8_","__ZN2cv6detail14FeatherBlender16createWeightMapsERKNSt3__16vectorINS_4UMatENS2_9allocatorIS4_EEEERKNS3_INS_6Point_IiEENS5_ISB_EEEERS7_","_cv_equalizeHist","_cv_Stitcher_create","_cvGraphRemoveVtx","_cv_Mat_op_add_i8","_cvConvexHull2","__ZN2cv10fastMallocEm","__ZN2cv3dnn14dnn4_v2025061910FloorLayer6createERKNS1_11LayerParamsE","__ZN2cv6detail8tracking18TrackerTargetState14setTargetWidthEi","__ZNK2cv8FileNode4realEv","__ZN2cv8logPolarERKNS_11_InputArrayERKNS_12_OutputArrayENS_6Point_IfEEdi","_cvCreateGraph","_cv_Subdiv2D_initDelaunay","__ZNK2cv5aruco13ArucoDetector21refineDetectedMarkersERKNS_11_InputArrayERKNS0_5BoardERKNS_17_InputOutputArrayESA_SA_S4_S4_RKNS_12_OutputArrayE","_std_VecVecChar_new_3","__ZN2cv3hal12magnitude32fEPKfS2_Pfi","__ZN2cv3dnn14dnn4_v2025061910PowerLayer6createERKNS1_11LayerParamsE","__ZN2cv3maxEdRKNS_3MatE","_std_VecU32_extend","__ZN2cv17AVIWriteContainer15startWriteChunkEj","__ZNK2cv5MatOp11augAssignOrERKNS_7MatExprERNS_3MatE","__ZN2cv7inpaintERKNS_11_InputArrayES2_RKNS_12_OutputArrayEdi","__ZN2cv6detail12DpSeamFinder9findEdgesEv","__ZN2cv2ml3SVM6createEv","_cv_AKAZE_getNOctaveLayers","_cvSubRS","_cvGetMat","__ZNK2cv5MatOp4typeERKNS_7MatExprE","_cv_Mat_reshape","_std_VecI64_extend","_std_VecI8_new_1","_cv_VideoCapture_isOpened","__ZN2cv5flann11IndexParams9setDoubleERKNSt3__112basic_stringIcNS2_11char_traitsIcEENS2_9allocatorIcEEEEd","__ZN2cv3dnn14dnn4_v202506193Net4Impl13addLayerInputERNS1_6detail9LayerDataEiNS4_8LayerPinE","__ZNK2cv12MatAllocator8downloadEPNS_8UMatDataEPviPKmS5_S5_S5_","__ZNK2cv3ocl7Program3ptrEv","__ZN2cv3dnn14dnn4_v202506193Net4Impl13setInputShapeERKNSt3__112basic_stringIcNS4_11char_traitsIcEENS4_9allocatorIcEEEERKNS4_6vectorIiNS8_IiEEEE","__ZN2cv7ellipseERKNS_17_InputOutputArrayERKNS_11RotatedRectERKNS_7Scalar_IdEEii","__ZNK2cv9Feature2D5emptyEv","__ZN2cv8parallel14ParallelForAPID1Ev","_cv_KAZE_empty","__ZN2cv5utils7logging14getLogTagLevelEPKc","_cv_Mat_create_5","__ZN2cv9SparseMatC1Ev","__ZNK2cv3dnn14dnn4_v202506193Net4Impl11dumpToPbtxtEb","__ZN2cv18HoughLinesPointSetERKNS_11_InputArrayERKNS_12_OutputArrayEiidddddd","__ZN2cv9softfloatC1Ei","__ZN2cv6plugin4impl10DynamicLibD2Ev","__ZN2cv11compareHistERKNS_11_InputArrayES2_i","_cvGetCaptureDomain","__ZN2cv5remapERKNS_11_InputArrayERKNS_12_OutputArrayES2_S2_iiRKNS_7Scalar_IdEE","__ZN2cv3hal5QR32fEPfmiiiS1_mS1_","_std_VecU16_free","_cv_ximgproc_EdgeDrawing_detectLines","__ZN2cv15ImageCollection8iteratorC2EPS0_i","_cvInitTreeNodeIterator","_cv_accumulateProduct","__ZN2cv8img_hash16MarrHildrethHash14setKernelParamEff","__ZNK2cv11FileStorageixEPKc","_cvRandShuffle","_cv_dnn_Net_forward","_WebPDecode","_std_VecPoint2f_shrink_to_fit","__ZN2cv4UMatC1ERKS0_RKNS_5RangeES5_","_std_VecRect2f_free","__ZN2cv3hal5Morph6createEiiiiiiPhmiiiiiPKdibb","__ZN2cv5flann5Index5load_ERKNSt3__112basic_stringIcNS2_11char_traitsIcEENS2_9allocatorIcEEEE","__ZNK2cv3dnn14dnn4_v202506195Layer15getMemoryShapesERKNSt3__16vectorINS4_IiNS3_9allocatorIiEEEENS5_IS7_EEEEiRS9_SC_","__ZN2cv3ocl8PlatformD2Ev","_cv_Mat_get_Vec4s","_cv_Mat_ones","_cv_UMat_usageFlags","_cv_vconcat","_std_VecVec4i_resize","__ZN2cv3ocl6DeviceaSEOS1_","_cv_CLAHE_setClipLimit","_cv_GFTTDetector_setK","__ZN2cv3ocl6DeviceD2Ev","__ZN2cv12AsyncPromise8setValueERKNS_11_InputArrayE","__ZN2cv3MataSEOS0_","__ZN2cv3dnn14dnn4_v2025061910ConstLayer6createERKNS1_11LayerParamsE","__ZN2cv6detail24check_failed_MatChannelsEiiRKNS0_12CheckContextE","__ZN2cv3dnn14dnn4_v202506193Net4Impl11initBackendERKNSt3__16vectorINS1_6detail8LayerPinENS4_9allocatorIS7_EEEE","__ZN2cvleERKNS_3MatEd","__ZNK2cv12_OutputArray6assignERKNSt3__16vectorINS_3MatENS1_9allocatorIS3_EEEE","__ZN2cv3hal6log64fEPKdPdi","_cvCbrt","__ZN2cv3dnn14dnn4_v2025061912ReshapeLayer6createERKNS1_11LayerParamsE","_cv_KalmanFilter_get_temp3","__ZN2cv5utils2fs8FileLockD1Ev","__ZN2cv22SparseMatConstIteratorC1EPKNS_9SparseMatE","__ZNK2cv11_InputArray4dimsEi","__ZN2cv18findFundamentalMatERKNS_11_InputArrayES2_iddiRKNS_12_OutputArrayE","__ZN2cv3ocl7Context4Impl19__init_buffer_poolsEv","__ZNK2cv3ocl12PlatformInfo12deviceNumberEv","_cv_divide","_cv_estimateAffine2D","__ZN2cv16convexityDefectsERKNS_11_InputArrayES2_RKNS_12_OutputArrayE","__ZN2cv11FileStorage4Impl13Base64Decoder8getUInt8Ev","__ZNK2cv4UMat5cloneEv","__ZN2cv11HoughLinesPERKNS_11_InputArrayERKNS_12_OutputArrayEddidd","__ZN2cv8img_hash18RadialVarianceHash11getFeaturesEv","__ZNK2cv3Mat8assignToERS0_i","__ZN2cv3MatC1ENS_5Size_IiEEi","__ZN2cv3minERKNS_3MatES2_","_cvCreateImageHeader","__ZN2cv11FileStorage4Impl12writeRawDataERKNSt3__112basic_stringIcNS2_11char_traitsIcEENS2_9allocatorIcEEEEPKvm","__ZNK2cv6detail8tracking21TrackerStateEstimator12getClassNameEv","__ZNK2cv11FileStorage4Impl4rootEi","__ZNK2cv3ocl6Device16OpenCL_C_VersionEv","_cv_getStructuringElement","_cv_KAZE_detectAndCompute","__ZN2cv8Subdiv2D8QuadEdgeC2Ev","_std_VecVecDMatch_get","__ZN2cv3dnn14dnn4_v2025061912FlattenLayer6createERKNS1_11LayerParamsE","_cv_RNG_create","__ZN2cv3dnn14dnn4_v202506193Net8setInputERKNS_11_InputArrayERKNSt3__112basic_stringIcNS6_11char_traitsIcEENS6_9allocatorIcEEEEdRKNS_7Scalar_IdEE","_std_VecPoint2f_new_1","__ZN2cv7hconcatERKNS_11_InputArrayERKNS_12_OutputArrayE","_std_VecRect_new_1","__ZN2cv5flann11IndexParamsD1Ev","__ZN2cv10TrackerMIL6ParamsC2Ev","__ZN2cv3ocl8Platform10getDefaultEv","__ZN2cv4UMatC2EiPKiiNS_14UMatUsageFlagsE","__ZN2cv5flann17LinearIndexParamsC2Ev","_cvResetImageROI","_cv_adaptiveThreshold","__ZN2cv9AnimationC1EiNS_7Scalar_IdEE","_cv_UMat_create_5","_cv_filterSpeckles","_cv_quality_QualityBRISQUE_computeFeatures_static","_setLogLevel","__ZNK2cv3dnn14dnn4_v202506193Net4Impl8getParamEii","_std_VecVecDMatch_get_ij","_cvAnd","_cv_resize","__ZN2cv3MatC2ERKS0_RKNS_5Rect_IiEE","__ZN2cv3dnn14dnn4_v2025061911ShrinkLayer6createERKNS1_11LayerParamsE","__ZN2cv27initInverseRectificationMapERKNS_11_InputArrayES2_S2_S2_RKNS_5Size_IiEEiRKNS_12_OutputArrayES9_","__ZN2cv4MSER6createEiiiddiddi","__ZN2cv3ocl7Context10unloadProgERNS0_7ProgramE","__ZN2cv3hal6mul32fEPKfmS2_mPfmiiPv","__ZN2cv5writeERNS_11FileStorageERKNSt3__112basic_stringIcNS2_11char_traitsIcEENS2_9allocatorIcEEEERKNS2_6vectorINS_6DMatchENS6_ISC_EEEE","__ZN2cv6detail8tracking14TrackerSamplerC2Ev","__ZN2cv9HuMomentsERKNS_7MomentsEPd","_cv_Subdiv2D_rotateEdge","__ZN2cv3MatC2ERKS0_","__ZNK2cv8FileNode4typeEv","_std_VecDMatch_new_1","__ZN2cv3LDAC1Ei","__ZN2cv3dnn14dnn4_v202506193Net4dumpEv","__ZNK2cv5aruco13ArucoDetector13detectMarkersERKNS_11_InputArrayERKNS_12_OutputArrayES7_S7_","_cvInitMatNDHeader","_WebPGetColorPalette","__ZN2cv16PyRotationWarper4warpERKNS_11_InputArrayES3_S3_iiRKNS_12_OutputArrayE","_cv_flann_IndexParams_setBool","__ZN2cv3dnn14dnn4_v202506199AsinLayer6createERKNS1_11LayerParamsE","__ZN2cv5splitERKNS_11_InputArrayERKNS_12_OutputArrayE","_cv_UMat_colRange","__ZNK2cv12_OutputArray4moveERNS_4UMatE","_cv_Mat_set_u8_2","_std_VecF16_reserve","_cv_ximgproc_RFFeatureGetter_create","__ZN2cv3Mat15getStdAllocatorEv","_std_VecChar_extend","__ZN2cv12VideoCapturersERNS_3MatE","__ZN2cv8FileNode6isFlowEi","_std_VecF64_reserve","__ZNK2cv7MatExpr5crossERKNS_3MatE","__ZN2cv5aruco12CharucoBoard16setLegacyPatternEb","__ZN2cv6detail20AffineBasedEstimator8estimateERKNSt3__16vectorINS0_13ImageFeaturesENS2_9allocatorIS4_EEEERKNS3_INS0_11MatchesInfoENS5_ISA_EEEERNS3_INS0_12CameraParamsENS5_ISF_EEEE","__ZN2cv3ocl32buildOptionsAddMatrixDescriptionERNSt3__112basic_stringIcNS1_11char_traitsIcEENS1_9allocatorIcEEEERKS7_RKNS_11_InputArrayE","__ZN2cv8Stitcher6stitchERKNS_11_InputArrayERKNS_12_OutputArrayE","_std_VecPoint3i_set","__ZN2cv3dnn14dnn4_v202506193Net14addLayerToPrevERKNSt3__112basic_stringIcNS3_11char_traitsIcEENS3_9allocatorIcEEEESB_RNS1_11LayerParamsE","_std_VecVecPoint_push_back","_cv_floodFill","__ZN2cv5instr8getFlagsEv","_cvPrevTreeNode","_cv_Mat_create_1","__ZN2cv3dnn14dnn4_v2025061915skipModelImportEb","_cv_approxPolyN2f","__ZNK2cv3ocl6Device23preferredVectorWidthIntEv","__ZN2cv3hal9magnitudeEPKfS2_Pfi","__ZNK2cv10softdoublemiERKS0_","_cv_findNonZero","__ZN2cv3ipp12setIppStatusEiPKcS2_i","__ZN2cv7quality10QualityMSE7computeERKNS_11_InputArrayES4_RKNS_12_OutputArrayE","__ZN2cv6detail12CameraParamsC1ERKS1_","_std_VecKeyPoint_shrink_to_fit","_std_VecVecPoint3f_free","__ZNK2cv7MatExprclERKNS_5RangeES3_","__ZNK2cv3ocl6Device9availableEv","__ZN2cv13wechat_qrcode12WeChatQRCode4Impl6detectERKNS_3MatE","__ZNK2cv3ocl6Device21nativeVectorWidthLongEv","__Z7cvTruncRKN2cv10softdoubleE","__ZN2cv10fitEllipseERKNS_11_InputArrayE","__ZN2cv3dnn14dnn4_v202506199ReLULayer6createERKNS1_11LayerParamsE","__ZN2cv3MatC1ERKNSt3__16vectorIiNS1_9allocatorIiEEEEiPvPKm","__ZN2cv3RNG4fillERKNS_17_InputOutputArrayEiRKNS_11_InputArrayES6_b","__ZN2cv3hal6add64fEPKdmS2_mPdmiiPv","__ZN2cv3ocl12PlatformInfoC1ERKS1_","__ZN2cv6detail26restoreImageFromLaplacePyrERNSt3__16vectorINS_4UMatENS1_9allocatorIS3_EEEE","_cv_Subdiv2D_nextEdge","_cv_aruco_detectorParameters_set_maxMarkerPerimeterRate","__ZN2cv13wechat_qrcode12WeChatQRCode4Impl12getScaleListEii","_cv_MSER_empty","__ZN2cv3hal6min16sEPKsmS2_mPsmiiPv","__ZNK2cv3ocl6Device17hostUnifiedMemoryEv","_std_VecU8_extend","__ZN2cv21GraphicalCodeDetectorC1Ev","__ZNK2cv3dnn14dnn4_v202506195Layer20applyHalideSchedulerERNS_3PtrINS1_11BackendNodeEEERKNSt3__16vectorIPNS_3MatENS7_9allocatorISA_EEEERKNS8_IS9_NSB_IS9_EEEEi","__ZN2cv9AlgorithmC2Ev","__ZN2cv11FileStorage4Impl27get_state_of_writing_base64Ev","__ZN2cv3Mat6resizeEm","__ZN2cv12approxPolyDPERKNS_11_InputArrayERKNS_12_OutputArrayEdb","__ZN2cv3hal13addWeighted8sEPKamS2_mPamiiPv","_std_VecVecPoint3i_get_ij","__ZNK11CvSparseMat15copyToSparseMatERN2cv9SparseMatE","_cv_drawKeyPoints","__ZN2cv3dnn14dnn4_v202506195LayerD2Ev","__ZN2cv5flann33HierarchicalClusteringIndexParamsC2EiN7cvflann20flann_centers_init_tEii","__ZNK2cv3dnn14dnn4_v202506193Net14getLayerShapesERKNSt3__16vectorIiNS3_9allocatorIiEEEEiRNS4_IS7_NS5_IS7_EEEESC_","_cv_Mat_get_i16_3","_std_VecRotatedRect_free","__ZN2cv3dnn14dnn4_v202506195Layer9initWebnnERKNSt3__16vectorINS_3PtrINS1_14BackendWrapperEEENS3_9allocatorIS7_EEEERKNS4_INS5_INS1_11BackendNodeEEENS8_ISE_EEEE","_cv_SVDecomp","_std_VecMat_length","__ZNK2cv3ocl6Kernel13workGroupSizeEv","__ZN2cv17CascadeClassifier16setMaskGeneratorERKNS_3PtrINS_21BaseCascadeClassifier13MaskGeneratorEEE","__ZN2cv3MatC2EiiiRKNS_7Scalar_IdEE","__ZN2cv3ocl10haveOpenCLEv","__ZN2cv11FileStorage4Impl11setNonEmptyEv","__ZN2cv3hal6min32fEPKfmS2_mPfmiiPv","__ZN2cv15calibrateCameraERKNS_11_InputArrayES2_NS_5Size_IiEERKNS_17_InputOutputArrayES7_RKNS_12_OutputArrayESA_iNS_12TermCriteriaE","__ZN2cv3dnn14dnn4_v2025061913readTorchBlobERKNSt3__112basic_stringIcNS2_11char_traitsIcEENS2_9allocatorIcEEEEb","__ZNK2cv3dnn14dnn4_v202506193Net15getLayersShapesERKNSt3__16vectorIiNS3_9allocatorIiEEEERS7_RNS4_INS4_IS7_NS5_IS7_EEEENS5_ISC_EEEESF_","__ZNK2cv15ImageCollection4Impl5widthEv","__ZN2cv6detail8tracking17TrackerSamplerCSC6ParamsC1Ev","_cv_Mat_op_sub_f32","_cv_KalmanFilter_set_gain","_cv_FaceRecognizerSF_close","_std_VecVecDMatch_data","_cv_setIdentity","_cv_StereoSGBM_setPreFilterCap","__ZNK2cv3dnn14dnn4_v202506193Net20getMemoryConsumptionERKNSt3__16vectorIiNS3_9allocatorIiEEEERS7_RNS4_ImNS5_ImEEEESD_","__ZN2cv6detail17VoronoiSeamFinder4findERKNSt3__16vectorINS_5Size_IiEENS2_9allocatorIS5_EEEERKNS3_INS_6Point_IiEENS6_ISC_EEEERNS3_INS_4UMatENS6_ISH_EEEE","__ZN2cv15getVersionMajorEv","__ZN2cv3dnn14dnn4_v2025061917resetMyriadDeviceEv","__ZN2cv11FileStorage4ImplD1Ev","__ZNK2cv3dnn14dnn4_v202506193Net4Impl14getLayerInputsEi","_cvInsertNodeIntoTree","__ZNK2cv5flann5Index12getAlgorithmEv","_cvSeqRemoveSlice","__ZN2cv11mixChannelsERKNS_11_InputArrayERKNS_17_InputOutputArrayERKNSt3__16vectorIiNS6_9allocatorIiEEEE","_std_VecDMatch_resize","__ZN2cvleERKNS_3MatES2_","__ZN2cvneERKNS_3MatEd","__ZNK2cv3Mat1tEv","_cv_UMat_create_ones_1","__ZN2cv15ImageCollection12releaseCacheEi","__ZN2cv3dnn14dnn4_v2025061919ShuffleChannelLayer6createERKNS1_11LayerParamsE","_std_VecVecDMatch_free","__ZN2cv8Subdiv2DC2ENS_5Rect_IiEE","_std_VecDMatch_push_back","__ZNK2cv12MatAllocator4copyEPNS_8UMatDataES2_iPKmS4_S4_S4_S4_b","_cv_rectangle","_WebPDemuxPrevChunk","__ZN2cv3PCAC2ERKNS_11_InputArrayES3_id","_cv_determinant","__ZN2cv21find4QuadCornerSubpixERKNS_11_InputArrayERKNS_17_InputOutputArrayENS_5Size_IiEE","__ZN2cvgeERKNS_3MatEd","__ZN2cvlsERNS_11FileStorageERKNSt3__112basic_stringIcNS2_11char_traitsIcEENS2_9allocatorIcEEEE","_WebPDecodeRGBA","_cv_ORB_getPatchSize","_cv_Subdiv2D_getLeadingEdgeList","_cv_findChessboardCornersSB_1","__ZN2cv18findFundamentalMatERKNS_11_InputArrayES2_RKNS_12_OutputArrayERKNS_10UsacParamsE","_cv_FastFeatureDetector_setThreshold","_std_VecRotatedRect_data","_cvRepeat","__ZN2cv16FileNodeIterator7readRawERKNSt3__112basic_stringIcNS1_11char_traitsIcEENS1_9allocatorIcEEEEPvm","_cv_AgastFeatureDetector_detect","__ZN2cv8StereoBM6createEii","_std_VecUChar_shrink_to_fit","_std_VecU16_reserve","__ZN2cv7details24setFPDenormalsIgnoreHintEbRNS0_20FPDenormalsModeStateE","_cv_Subdiv2D_findNearest","_writeLogMessageEx","__ZN2cv12GaussianBlurERKNS_11_InputArrayERKNS_12_OutputArrayENS_5Size_IiEEddiNS_13AlgorithmHintE","_cv_Mat_get_Vec2d","_std_VecU64_new_2","_cv_MSER_setEdgeBlurSize","__ZN2cv15ImageCollection3endEv","_cv_watershed","_std_VecVecDMatch_new","_cv_grabCut","_cv_AKAZE_setThreshold","__ZN2cv3dnn14dnn4_v202506195Layer7tryFuseERNS_3PtrIS2_EE","__ZN2cv17DescriptorMatcher4readERKNS_8FileNodeE","_cv_approxPolyDP","__ZNK2cv3Mat5step1Ei","_cv_Mat_set_Vec8i","__ZN2cv8Subdiv2D10deleteEdgeEi","_cv_extractChannel","_std_VecF64_clear","__ZN2cv3hal8gemm64fcEPKdmS2_mdS2_mdPdmiiii","__ZN2cv14solvePnPRansacERKNS_11_InputArrayES2_RKNS_17_InputOutputArrayES2_RKNS_12_OutputArrayES8_S8_RKNS_10UsacParamsE","__ZNK2cv3dnn14dnn4_v202506193Net8getLayerEi","_WebPAnimEncoderGetChunk","__ZN2cv2ml9ParamGridC1Eddd","_cvCreateMat","_cv_polarToCart","__ZN2cv6detail19findMaxSpanningTreeEiRKNSt3__16vectorINS0_11MatchesInfoENS1_9allocatorIS3_EEEERNS0_5GraphERNS2_IiNS4_IiEEEE","_cv_KalmanFilter_correct","__ZN2cv6detail17BlocksCompensator10getGainMapERKNS0_15GainCompensatorEiNS_5Size_IiEE","__ZN2cv11drawMatchesERKNS_11_InputArrayERKNSt3__16vectorINS_8KeyPointENS3_9allocatorIS5_EEEES2_SA_RKNS4_INS4_INS_6DMatchENS6_ISB_EEEENS6_ISD_EEEERKNS_17_InputOutputArrayERKNS_7Scalar_IdEESO_RKNS4_INS4_IcNS6_IcEEEENS6_ISQ_EEEENS_16DrawMatchesFlagsE","__ZN2cv23findChessboardCornersSBERKNS_11_InputArrayENS_5Size_IiEERKNS_12_OutputArrayEiS7_","__ZNK2cv13HOGDescriptor7computeERKNS_11_InputArrayERNSt3__16vectorIfNS4_9allocatorIfEEEENS_5Size_IiEESB_RKNS5_INS_6Point_IiEENS6_ISD_EEEE","__ZN2cv7MomentsC2Edddddddddd","__ZN2cv6detail21BlocksGainCompensator4feedERKNSt3__16vectorINS_6Point_IiEENS2_9allocatorIS5_EEEERKNS3_INS_4UMatENS6_ISB_EEEERKNS3_INS2_4pairISB_hEENS6_ISH_EEEE","_std_VecI64_clone","__ZN2cv3hal2LUEPfmiS1_mi","__ZN2cv6detail17check_failed_autoEiiRKNS0_12CheckContextE","_cv_Mat_set_i16_1","_cv_arcLength","_cv_dnn_AsyncArray_new","__ZNK2cv3dnn14dnn4_v202506193Net4Impl10getLayerIdEi","_cv_VideoWriter_get","__ZN2cv6detail16MultiBandBlenderC1Eiii","_cv_UMat_elemSize","_std_VecI64_reserve","_cv_bilateralFilter","__ZN2cv3cosERKNS_10softdoubleE","__ZN2cv27CirclesGridFinderParametersC2Ev","__ZN2cv3dnn14dnn4_v2025061923blobFromImageWithParamsERKNS_11_InputArrayERKNS1_16Image2BlobParamsE","__ZN2cv13IStreamReaderD2Ev","_std_VecF16_shrink_to_fit","__ZNK2cv13HOGDescriptor15computeGradientERKNS_11_InputArrayERKNS_17_InputOutputArrayES6_NS_5Size_IiEES8_","_std_VecVec4i_clear","_cv_createAlignMTB","_std_VecU8_new_1","_cv_AKAZE_detectAndCompute","_std_VecRect_set","__ZN2cv3hal8recip16sEPKsmS2_mPsmiiPv","_std_VecVec4f_clear","__ZN2cv8Subdiv2D6insertERKNSt3__16vectorINS_6Point_IfEENS1_9allocatorIS4_EEEE","__ZNK2cv3ocl6Device12endianLittleEv","_WebPMuxNumChunks","__ZN2cv4UMataSERKS0_","__ZN9CvLevMarq4stepEv","__ZNK2cv4UMat8assignToERS0_i","__ZN2cv15preCornerDetectERKNS_11_InputArrayERKNS_12_OutputArrayEii","_cv_arcLength2f","_std_VecVecPoint_new","__ZN2cv18createMergeMertensEfff","__ZN2cv3dnn14dnn4_v2025061916Image2BlobParamsC1ERKNS_7Scalar_IdEERKNS_5Size_IiEES6_biNS1_10DataLayoutENS1_16ImagePaddingModeES4_","__ZN2cv5utils5trace7details6Region4ImplD2Ev","_cv_ximgproc_rl_morphologyEx","__ZN2cv3hal6sub64fEPKdmS2_mPdmiiPv","_std_VecVecChar_get","__ZNK2cv14DefaultDeleterI9_IplImageEclEPS1_","__ZN2cv3dnn14dnn4_v2025061924blobFromImagesWithParamsERKNS_11_InputArrayERKNS1_16Image2BlobParamsE","__ZN2cv3hal12cvtGraytoBGREPKhmPhmiiii","__ZN2cv12VideoCapture4grabEv","_std_VecUChar_set","__ZN2cv3ocl7ProgramC1Ev","_std_VecVec4f_shrink_to_fit","_cvMaxS","__ZN2cv6detail11PlaneWarper7warpRoiENS_5Size_IiEERKNS_11_InputArrayES6_S6_","__ZN2cv4UMatC1EiPKiiNS_14UMatUsageFlagsE","__ZN2cv6detail24HomographyBasedEstimator8estimateERKNSt3__16vectorINS0_13ImageFeaturesENS2_9allocatorIS4_EEEERKNS3_INS0_11MatchesInfoENS5_ISA_EEEERNS3_INS0_12CameraParamsENS5_ISF_EEEE","_cvBackProjectPCA","__ZN2cv6detail8tracking21TrackerStateEstimatorD0Ev","__ZN2cv5utils10BufferArea6commitEv","_cv_findFundamentalMat_2","__ZN2cv19goodFeaturesToTrackERKNS_11_InputArrayERKNS_12_OutputArrayEiddS2_S5_iibd","_cv_Stitcher_get_compositingResol","_cv_UMat_copyTo_2","_cvLUT","__ZNK2cv6plugin4impl10DynamicLib9getSymbolEPKc","_cv_Stitcher_set_seamEstimationResol","_std_VecU8_set","__ZN2cv3dnn14dnn4_v2025061913PriorBoxLayer6createERKNS1_11LayerParamsE","_std_VecRotatedRect_extend","_std_VecChar_push_back","__ZNK2cv19QRCodeDetectorAruco18getArucoParametersEv","__ZN2cv3minEdRKNS_3MatE","__ZN2cv4readERKNS_8FileNodeERNSt3__16vectorINS_6DMatchENS3_9allocatorIS5_EEEE","__ZN2cvmiERKNS_3MatERKNS_7Scalar_IdEE","__Z7cvTruncRKN2cv9softfloatE","_std_VecU8_data","__ZN2cv3hal6mul16sEPKsmS2_mPsmiiPv","_cv_KalmanFilter_get_statePre","__ZN2cv7quality11QualitySSIM9_mat_dataC2ERKNS_11_InputArrayE","__ZN2cv10softdoubleC1Ey","__ZN2cv13imdecodemultiERKNS_11_InputArrayEiRNSt3__16vectorINS_3MatENS3_9allocatorIS5_EEEERKNS_5RangeE","__ZN2cv8internal15IntrinsicParamsC1ENS_3VecIdLi2EEES3_NS2_IdLi4EEEd","__ZN2cv5utils10BufferArea8zeroFillEv","_cv_solve","__ZNK2cv17CascadeClassifier18isOldFormatCascadeEv","__ZNK2cv8Subdiv2D11checkSubdivEv","_cv_Mat_getUMat","__ZN2cv11drawMatchesERKNS_11_InputArrayERKNSt3__16vectorINS_8KeyPointENS3_9allocatorIS5_EEEES2_SA_RKNS4_INS_6DMatchENS6_ISB_EEEERKNS_17_InputOutputArrayEiRKNS_7Scalar_IdEESM_RKNS4_IcNS6_IcEEEENS_16DrawMatchesFlagsE","__ZN2cv3dnn14dnn4_v202506193Net4Impl18setHalideSchedulerERKNSt3__112basic_stringIcNS4_11char_traitsIcEENS4_9allocatorIcEEEE","_std_VecVec4i_get","__ZN2cv3hal6div32sEPKimS2_mPimiiPv","__ZN2cv3hal6add16sEPKsmS2_mPsmiiPv","_cvGetPerspectiveTransform","__ZN2cv12VideoCaptureC1ERKNS_3PtrINS_13IStreamReaderEEEiRKNSt3__16vectorIiNS6_9allocatorIiEEEE","__ZN2cv11VideoWriter4openERKNSt3__112basic_stringIcNS1_11char_traitsIcEENS1_9allocatorIcEEEEidRKNS_5Size_IiEERKNS1_6vectorIiNS5_IiEEEE","__ZN2cv6detail17check_failed_autoEiRKNS0_12CheckContextE","__ZN2cv11RNG_MT19937C1Ev","__ZN2cv8CholeskyEPfmiS0_mi","_cv_ximgproc_GraphSegmentation_setSigma","_std_VecF32_free","_cv_aruco_arucoDetector_create_1","_cv_FaceDetectorYN_create_1","__ZN2cv3dnn14dnn4_v202506199MishLayer6createERKNS1_11LayerParamsE","_cvSeqPushFront","_cv_UMat_createFunc_2","__ZN2cv20imdecodeWithMetadataERKNS_11_InputArrayERNSt3__16vectorIiNS3_9allocatorIiEEEERKNS_12_OutputArrayEi","__ZN2cv11FileStorage4openERKNSt3__112basic_stringIcNS1_11char_traitsIcEENS1_9allocatorIcEEEEiS9_"],"weak":["__ZNSt3__16vectorINS0_IN2cv6DMatchENS_9allocatorIS2_EEEENS3_IS5_EEE18__insert_with_sizeB8de200100INS_11__wrap_iterIPS5_EESB_EESB_NS9_IPKS5_EET_T0_l","__ZNSt3__16vectorINS0_IN2cv7Point3_IfEENS_9allocatorIS3_EEEENS4_IS6_EEE18__insert_with_sizeB8de200100INS_11__wrap_iterIPS6_EESC_EESC_NSA_IPKS6_EET_T0_l","__ZNSt3__16vectorIN2cv7Point3_IfEENS_9allocatorIS3_EEE18__insert_with_sizeB8de200100INS_11__wrap_iterIPS3_EESA_EESA_NS8_IPKS3_EET_T0_l","__ZNSt3__16vectorIxNS_9allocatorIxEEE18__construct_at_endIPxS5_EEvT_T0_m","__ZNSt3__114__split_bufferINS_6vectorIN2cv7Point3_IfEENS_9allocatorIS4_EEEERNS5_IS7_EEE28__construct_at_end_with_sizeINS_11__wrap_iterIPS7_EEEEvT_m","__ZNSt3__16vectorIN2cv7Point3_IfEENS_9allocatorIS3_EEE18__construct_at_endINS_11__wrap_iterIPS3_EESA_EEvT_T0_m","__ZNSt3__16vectorIhNS_9allocatorIhEEE18__construct_at_endIPhS5_EEvT_T0_m","__ZNSt3__16vectorIyNS_9allocatorIyEEE18__construct_at_endIPyS5_EEvT_T0_m","__ZNSt3__16vectorIsNS_9allocatorIsEEE18__construct_at_endIPsS5_EEvT_T0_m","__ZNSt3__16vectorIN2cv11RotatedRectENS_9allocatorIS2_EEE18__insert_with_sizeB8de200100INS_11__wrap_iterIPS2_EES9_EES9_NS7_IPKS2_EET_T0_l","__ZNSt3__16vectorIN2cv5Rect_IfEENS_9allocatorIS3_EEE18__construct_at_endINS_11__wrap_iterIPS3_EESA_EEvT_T0_m","__ZNSt3__16vectorINS0_IN2cv6Point_IfEENS_9allocatorIS3_EEEENS4_IS6_EEE18__insert_with_sizeB8de200100INS_11__wrap_iterIPS6_EESC_EESC_NSA_IPKS6_EET_T0_l","__ZNSt3__16vectorIN2cv3VecIfLi6EEENS_9allocatorIS3_EEE18__insert_with_sizeB8de200100INS_11__wrap_iterIPS3_EESA_EESA_NS8_IPKS3_EET_T0_l","__ZNSt3__16vectorIN2cv8KeyPointENS_9allocatorIS2_EEE18__insert_with_sizeB8de200100INS_11__wrap_iterIPS2_EES9_EES9_NS7_IPKS2_EET_T0_l","__ZNSt3__114__split_bufferIjRNS_9allocatorIjEEE28__construct_at_end_with_sizeINS_11__wrap_iterIPjEEEEvT_m","__ZNSt3__16vectorIN2cv6DMatchENS_9allocatorIS2_EEE18__insert_with_sizeB8de200100INS_11__wrap_iterIPS2_EES9_EES9_NS7_IPKS2_EET_T0_l","__ZNSt3__16vectorIdNS_9allocatorIdEEE18__insert_with_sizeB8de200100INS_11__wrap_iterIPdEES7_EES7_NS5_IPKdEET_T0_l","__ZNSt3__16vectorIN2cv6Point_IfEENS_9allocatorIS3_EEE18__insert_with_sizeB8de200100INS_11__wrap_iterIPS3_EESA_EESA_NS8_IPKS3_EET_T0_l","__ZNSt3__16vectorIaNS_9allocatorIaEEE18__insert_with_sizeB8de200100INS_11__wrap_iterIPaEES7_EES7_NS5_IPKaEET_T0_l","__ZNSt3__16vectorIhNS_9allocatorIhEEE18__construct_at_endIN2cv12MatIterator_IhEES7_EEvT_T0_m","__ZNSt3__16vectorIiNS_9allocatorIiEEE18__construct_at_endIPiS5_EEvT_T0_m","__ZNSt3__114__split_bufferIdRNS_9allocatorIdEEE28__construct_at_end_with_sizeINS_11__wrap_iterIPdEEEEvT_m","__ZNSt3__16vectorIyNS_9allocatorIyEEE18__insert_with_sizeB8de200100INS_11__wrap_iterIPyEES7_EES7_NS5_IPKyEET_T0_l","__ZNSt3__114__split_bufferIiRNS_9allocatorIiEEE28__construct_at_end_with_sizeINS_11__wrap_iterIPiEEEEvT_m","__ZNSt3__114__split_bufferIN2cv7Point3_IiEERNS_9allocatorIS3_EEE28__construct_at_end_with_sizeINS_11__wrap_iterIPS3_EEEEvT_m","__ZNSt3__16vectorINS0_IN2cv6Point_IiEENS_9allocatorIS3_EEEENS4_IS6_EEE18__construct_at_endIPS6_SA_EEvT_T0_m","__ZNSt3__16vectorIsNS_9allocatorIsEEE18__insert_with_sizeB8de200100INS_11__wrap_iterIPsEES7_EES7_NS5_IPKsEET_T0_l","__ZNSt3__16vectorIfNS_9allocatorIfEEE18__construct_at_endINS_11__wrap_iterIPfEES7_EEvT_T0_m","__ZNSt3__16vectorIxNS_9allocatorIxEEE18__construct_at_endINS_11__wrap_iterIPxEES7_EEvT_T0_m","__ZNSt3__114__split_bufferINS_6vectorIN2cv7Point3_IiEENS_9allocatorIS4_EEEERNS5_IS7_EEE28__construct_at_end_with_sizeINS_11__wrap_iterIPS7_EEEEvT_m","__ZNSt3__16vectorIN2cv6DMatchENS_9allocatorIS2_EEE18__construct_at_endIPS2_S7_EEvT_T0_m","__ZNSt3__16vectorIN2cv11RotatedRectENS_9allocatorIS2_EEE18__construct_at_endINS_11__wrap_iterIPS2_EES9_EEvT_T0_m","__ZNSt3__16vectorIN2cv7Point3_IfEENS_9allocatorIS3_EEE18__assign_with_sizeB8de200100IPS3_S8_EEvT_T0_l","__ZNSt3__114__split_bufferItRNS_9allocatorItEEE28__construct_at_end_with_sizeINS_11__wrap_iterIPtEEEEvT_m","__ZNSt3__114__split_bufferIN2cv8KeyPointERNS_9allocatorIS2_EEE28__construct_at_end_with_sizeINS_11__wrap_iterIPS2_EEEEvT_m","__ZN2cv23findChessboardCornersSBERKNS_11_InputArrayENS_5Size_IiEERKNS_12_OutputArrayEi","__ZNSt3__16vectorIcNS_9allocatorIcEEE18__construct_at_endIPcS5_EEvT_T0_m","__ZNSt3__16vectorItNS_9allocatorItEEE18__construct_at_endINS_11__wrap_iterIPtEES7_EEvT_T0_m","__ZNSt3__16vectorINS0_IN2cv7Point3_IfEENS_9allocatorIS3_EEEENS4_IS6_EEE18__construct_at_endINS_11__wrap_iterIPS6_EESC_EEvT_T0_m","__ZNSt3__16vectorIcNS_9allocatorIcEEE18__assign_with_sizeB8de200100IPcS5_EEvT_T0_l","__ZNSt3__16vectorINS0_IN2cv6Point_IiEENS_9allocatorIS3_EEEENS4_IS6_EEE18__insert_with_sizeB8de200100INS_11__wrap_iterIPS6_EESC_EESC_NSA_IPKS6_EET_T0_l","__ZNSt3__114__split_bufferINS_6vectorIN2cv6Point_IfEENS_9allocatorIS4_EEEERNS5_IS7_EEE28__construct_at_end_with_sizeINS_11__wrap_iterIPS7_EEEEvT_m","__ZNSt3__114__split_bufferINS_6vectorIcNS_9allocatorIcEEEERNS2_IS4_EEE28__construct_at_end_with_sizeINS_11__wrap_iterIPS4_EEEEvT_m","__ZNSt3__16vectorIiNS_9allocatorIiEEE18__construct_at_endINS_11__wrap_iterIPN2cv3dnn14dnn4_v202506196TargetEEESB_EEvT_T0_m","__ZNSt3__16vectorIjNS_9allocatorIjEEE18__insert_with_sizeB8de200100INS_11__wrap_iterIPjEES7_EES7_NS5_IPKjEET_T0_l","__ZNSt3__16vectorIN2cv6Point_IiEENS_9allocatorIS3_EEE18__construct_at_endINS_11__wrap_iterIPS3_EESA_EEvT_T0_m","__ZNSt3__16vectorIN2cv7Point3_IiEENS_9allocatorIS3_EEE18__assign_with_sizeB8de200100IPS3_S8_EEvT_T0_l","__ZNSt3__16vectorIfNS_9allocatorIfEEE18__construct_at_endIPfS5_EEvT_T0_m","__ZNSt3__16vectorIiNS_9allocatorIiEEE18__insert_with_sizeB8de200100INS_11__wrap_iterIPiEES7_EES7_NS5_IPKiEET_T0_l","__ZNSt3__16vectorIxNS_9allocatorIxEEE18__insert_with_sizeB8de200100INS_11__wrap_iterIPxEES7_EES7_NS5_IPKxEET_T0_l","__ZNSt3__16vectorIN2cv6Point_IfEENS_9allocatorIS3_EEE18__construct_at_endIPS3_S8_EEvT_T0_m","__ZNSt3__114__split_bufferIN2cv5Rect_IiEERNS_9allocatorIS3_EEE28__construct_at_end_with_sizeINS_11__wrap_iterIPS3_EEEEvT_m","__ZNSt3__16vectorIN2cv3VecIfLi4EEENS_9allocatorIS3_EEE18__construct_at_endINS_11__wrap_iterIPS3_EESA_EEvT_T0_m","__ZNSt3__16vectorItNS_9allocatorItEEE18__insert_with_sizeB8de200100INS_11__wrap_iterIPtEES7_EES7_NS5_IPKtEET_T0_l","__ZNSt3__16vectorIN2cv6DMatchENS_9allocatorIS2_EEE18__construct_at_endINS_11__wrap_iterIPS2_EES9_EEvT_T0_m","__ZNSt3__16vectorIN2cv7Point3_IiEENS_9allocatorIS3_EEE18__construct_at_endINS_11__wrap_iterIPS3_EESA_EEvT_T0_m","__ZNSt3__16vectorIiNS_9allocatorIiEEE18__construct_at_endINS_11__wrap_iterIPiEES7_EEvT_T0_m","__ZNSt3__114__split_bufferIhRNS_9allocatorIhEEE28__construct_at_end_with_sizeINS_11__wrap_iterIPhEEEEvT_m","__ZNSt3__16vectorIjNS_9allocatorIjEEE18__construct_at_endINS_11__wrap_iterIPjEES7_EEvT_T0_m","__ZNSt3__16vectorIN2cv8KeyPointENS_9allocatorIS2_EEE18__construct_at_endINS_11__wrap_iterIPS2_EES9_EEvT_T0_m","__ZNSt3__114__split_bufferIsRNS_9allocatorIsEEE28__construct_at_end_with_sizeINS_11__wrap_iterIPsEEEEvT_m","__ZNSt3__16vectorIN2cv7Point3_IiEENS_9allocatorIS3_EEE18__insert_with_sizeB8de200100INS_11__wrap_iterIPS3_EESA_EESA_NS8_IPKS3_EET_T0_l","__ZNSt3__114__split_bufferIaRNS_9allocatorIaEEE28__construct_at_end_with_sizeINS_11__wrap_iterIPaEEEEvT_m","__ZNSt3__16vectorIN2cv3MatENS_9allocatorIS2_EEE18__insert_with_sizeB8de200100INS_11__wrap_iterIPS2_EES9_EES9_NS7_IPKS2_EET_T0_l","__ZNSt3__114__split_bufferIN2cv6Point_IfEERNS_9allocatorIS3_EEE28__construct_at_end_with_sizeINS_11__wrap_iterIPS3_EEEEvT_m","__ZNSt3__16vectorINS0_IN2cv6Point_IiEENS_9allocatorIS3_EEEENS4_IS6_EEE18__construct_at_endINS_11__wrap_iterIPS6_EESC_EEvT_T0_m","__ZNSt3__16vectorINS0_IcNS_9allocatorIcEEEENS1_IS3_EEE18__insert_with_sizeB8de200100INS_11__wrap_iterIPS3_EES9_EES9_NS7_IPKS3_EET_T0_l","__ZNSt3__114__split_bufferIN2cv3VecIiLi4EEERNS_9allocatorIS3_EEE28__construct_at_end_with_sizeINS_11__wrap_iterIPS3_EEEEvT_m","__ZNSt3__114__split_bufferIyRNS_9allocatorIyEEE28__construct_at_end_with_sizeINS_11__wrap_iterIPyEEEEvT_m","__ZNSt3__114__split_bufferIfRNS_9allocatorIfEEE28__construct_at_end_with_sizeINS_11__wrap_iterIPfEEEEvT_m","__ZNSt3__114__split_bufferIxRNS_9allocatorIxEEE28__construct_at_end_with_sizeINS_11__wrap_iterIPxEEEEvT_m","__ZNSt3__16vectorIN2cv3VecIiLi4EEENS_9allocatorIS3_EEE18__insert_with_sizeB8de200100INS_11__wrap_iterIPS3_EESA_EESA_NS8_IPKS3_EET_T0_l","__ZNSt3__16vectorIdNS_9allocatorIdEEE18__construct_at_endINS_11__wrap_iterIPdEES7_EEvT_T0_m","__ZNSt3__114__split_bufferINS_6vectorIN2cv6Point_IiEENS_9allocatorIS4_EEEERNS5_IS7_EEE28__construct_at_end_with_sizeINS_11__wrap_iterIPS7_EEEEvT_m","__ZNSt3__16vectorIN2cv3VecIfLi6EEENS_9allocatorIS3_EEE18__construct_at_endINS_11__wrap_iterIPS3_EESA_EEvT_T0_m","__ZNSt3__16vectorIN2cv3VecIfLi4EEENS_9allocatorIS3_EEE18__insert_with_sizeB8de200100INS_11__wrap_iterIPS3_EESA_EESA_NS8_IPKS3_EET_T0_l","__ZNSt3__16vectorIN2cv6DMatchENS_9allocatorIS2_EEE18__assign_with_sizeB8de200100IPS2_S7_EEvT_T0_l","__ZNSt3__114__split_bufferIN2cv3VecIfLi6EEERNS_9allocatorIS3_EEE28__construct_at_end_with_sizeINS_11__wrap_iterIPS3_EEEEvT_m","__ZNSt3__16vectorINS0_IN2cv7Point3_IiEENS_9allocatorIS3_EEEENS4_IS6_EEE18__construct_at_endINS_11__wrap_iterIPS6_EESC_EEvT_T0_m","__ZNSt3__16vectorINS0_IcNS_9allocatorIcEEEENS1_IS3_EEE18__construct_at_endINS_11__wrap_iterIPS3_EES9_EEvT_T0_m","__ZNSt3__16vectorINS0_IN2cv6DMatchENS_9allocatorIS2_EEEENS3_IS5_EEE18__construct_at_endINS_11__wrap_iterIPS5_EESB_EEvT_T0_m","__ZNSt3__114__split_bufferIN2cv3VecIfLi4EEERNS_9allocatorIS3_EEE28__construct_at_end_with_sizeINS_11__wrap_iterIPS3_EEEEvT_m","__ZNSt3__16vectorIaNS_9allocatorIaEEE18__construct_at_endINS_11__wrap_iterIPaEES7_EEvT_T0_m","__ZNSt3__16vectorIhNS_9allocatorIhEEE18__construct_at_endINS_11__wrap_iterIPhEES7_EEvT_T0_m","__ZNSt3__16vectorIN2cv6Point_IfEENS_9allocatorIS3_EEE18__construct_at_endINS_11__wrap_iterIPS3_EESA_EEvT_T0_m","__ZNSt3__16vectorIjNS_9allocatorIjEEE18__construct_at_endIPjS5_EEvT_T0_m","__ZNSt3__16vectorINS0_IN2cv6DMatchENS_9allocatorIS2_EEEENS3_IS5_EEE18__construct_at_endIPS5_S9_EEvT_T0_m","__ZNSt3__16vectorIN2cv5Rect_IiEENS_9allocatorIS3_EEE18__insert_with_sizeB8de200100INS_11__wrap_iterIPS3_EESA_EESA_NS8_IPKS3_EET_T0_l","__ZNSt3__16vectorIcNS_9allocatorIcEEE18__insert_with_sizeB8de200100INS_11__wrap_iterIPcEES7_EES7_NS5_IPKcEET_T0_l","__ZNSt3__114__split_bufferIN2cv3MatERNS_9allocatorIS2_EEE28__construct_at_end_with_sizeINS_11__wrap_iterIPS2_EEEEvT_m","__ZNSt3__16vectorINS_12basic_stringIcNS_11char_traitsIcEENS_9allocatorIcEEEENS4_IS6_EEE18__construct_at_endIPS6_SA_EEvT_T0_m","__ZNSt3__16vectorIN2cv6Point_IfEENS_9allocatorIS3_EEE18__assign_with_sizeB8de200100IPS3_S8_EEvT_T0_l","__ZNSt3__16vectorIN2cv3VecIiLi4EEENS_9allocatorIS3_EEE18__construct_at_endINS_11__wrap_iterIPS3_EESA_EEvT_T0_m","__ZNSt3__16vectorINS0_IN2cv7Point3_IiEENS_9allocatorIS3_EEEENS4_IS6_EEE18__insert_with_sizeB8de200100INS_11__wrap_iterIPS6_EESC_EESC_NSA_IPKS6_EET_T0_l","__ZNSt3__16vectorIdNS_9allocatorIdEEE18__construct_at_endIPdS5_EEvT_T0_m","__ZNSt3__16vectorIyNS_9allocatorIyEEE18__construct_at_endINS_11__wrap_iterIPyEES7_EEvT_T0_m","__ZNSt3__16vectorIN2cv3MatENS_9allocatorIS2_EEE18__construct_at_endINS_11__wrap_iterIPS2_EES9_EEvT_T0_m","__ZNSt3__16vectorIsNS_9allocatorIsEEE18__construct_at_endINS_11__wrap_iterIPsEES7_EEvT_T0_m","__ZNSt3__16vectorINS0_IcNS_9allocatorIcEEEENS1_IS3_EEE18__construct_at_endIPS3_S7_EEvT_T0_m","__ZNSt3__114__split_bufferIN2cv7Point3_IfEERNS_9allocatorIS3_EEE28__construct_at_end_with_sizeINS_11__wrap_iterIPS3_EEEEvT_m","__ZNSt3__114__split_bufferIcRNS_9allocatorIcEEE28__construct_at_end_with_sizeINS_11__wrap_iterIPcEEEEvT_m","__ZNSt3__16vectorIcNS_9allocatorIcEEE18__construct_at_endINS_11__wrap_iterIPcEES7_EEvT_T0_m","__ZNSt3__16vectorIfNS_9allocatorIfEEE18__insert_with_sizeB8de200100INS_11__wrap_iterIPfEES7_EES7_NS5_IPKfEET_T0_l","__ZN2cv19getRotationMatrix2DENS_6Point_IfEEdd","__ZNSt3__16vectorIhNS_9allocatorIhEEE18__assign_with_sizeB8de200100INS_11__wrap_iterIPhEES7_EEvT_T0_l","__ZNSt3__16vectorItNS_9allocatorItEEE18__construct_at_endIPtS5_EEvT_T0_m","__ZNSt3__16vectorIN2cv7Point3_IfEENS_9allocatorIS3_EEE18__construct_at_endIPS3_S8_EEvT_T0_m","__ZNSt3__16vectorIaNS_9allocatorIaEEE18__construct_at_endIPaS5_EEvT_T0_m","__ZNSt3__114__split_bufferIN2cv6DMatchERNS_9allocatorIS2_EEE28__construct_at_end_with_sizeINS_11__wrap_iterIPS2_EEEEvT_m","__ZNSt3__16vectorIN2cv6Point_IiEENS_9allocatorIS3_EEE18__assign_with_sizeB8de200100IPS3_S8_EEvT_T0_l","__ZNSt3__16vectorIN2cv5Rect_IfEENS_9allocatorIS3_EEE18__insert_with_sizeB8de200100INS_11__wrap_iterIPS3_EESA_EESA_NS8_IPKS3_EET_T0_l","__ZNSt3__114__split_bufferIN2cv6Point_IiEERNS_9allocatorIS3_EEE28__construct_at_end_with_sizeINS_11__wrap_iterIPS3_EEEEvT_m","__ZNSt3__16vectorINS0_IN2cv6Point_IfEENS_9allocatorIS3_EEEENS4_IS6_EEE18__construct_at_endINS_11__wrap_iterIPS6_EESC_EEvT_T0_m","__ZNSt3__114__split_bufferIN2cv11RotatedRectERNS_9allocatorIS2_EEE28__construct_at_end_with_sizeINS_11__wrap_iterIPS2_EEEEvT_m","__ZNSt3__16vectorIN2cv5Rect_IiEENS_9allocatorIS3_EEE18__construct_at_endINS_11__wrap_iterIPS3_EESA_EEvT_T0_m","__ZNSt3__16vectorIN2cv6Point_IiEENS_9allocatorIS3_EEE18__construct_at_endIPS3_S8_EEvT_T0_m","__ZNSt3__16vectorIhNS_9allocatorIhEEE18__insert_with_sizeB8de200100INS_11__wrap_iterIPhEES7_EES7_NS5_IPKhEET_T0_l","__ZNSt3__16vectorIN2cv7Point3_IiEENS_9allocatorIS3_EEE18__construct_at_endIPS3_S8_EEvT_T0_m","__ZNSt3__16vectorIN2cv6Point_IiEENS_9allocatorIS3_EEE18__insert_with_sizeB8de200100INS_11__wrap_iterIPS3_EESA_EESA_NS8_IPKS3_EET_T0_l","__ZNSt3__114__split_bufferINS_6vectorIN2cv6DMatchENS_9allocatorIS3_EEEERNS4_IS6_EEE28__construct_at_end_with_sizeINS_11__wrap_iterIPS6_EEEEvT_m","__ZNSt3__114__split_bufferIN2cv5Rect_IfEERNS_9allocatorIS3_EEE28__construct_at_end_with_sizeINS_11__wrap_iterIPS3_EEEEvT_m"]}}],"flags":[{"attributes":["not_app_extension_safe"]}],"install_names":[{"name":"@rpath/DartCvMacOS.framework/Versions/A/DartCvMacOS"}],"target_info":[{"min_deployment":"11","target":"arm64-macos"}]},"tapi_tbd_version":5}
